(lp0
S'http://www.365essay.com/sanwen001/001.htm'
p1
aS'http://www.365essay.com/sanwen001/002.htm'
p2
aS'http://www.365essay.com/sanwen001/003.htm'
p3
aS'http://www.365essay.com/sanwen001/004.htm'
p4
aS'http://www.365essay.com/sanwen001/005.htm'
p5
aS'http://www.365essay.com/sanwen001/006.htm'
p6
aS'http://www.365essay.com/sanwen001/007.htm'
p7
aS'http://www.365essay.com/sanwen001/008.htm'
p8
aS'http://www.365essay.com/sanwen001/009.htm'
p9
aS'http://www.365essay.com/sanwen001/010.htm'
p10
aS'http://www.365essay.com/sanwen001/011.htm'
p11
aS'http://www.365essay.com/sanwen001/012.htm'
p12
aS'http://www.365essay.com/sanwen001/013.htm'
p13
aS'http://www.365essay.com/sanwen001/014.htm'
p14
aS'http://www.365essay.com/sanwen001/015.htm'
p15
aS'http://www.365essay.com/sanwen001/016.htm'
p16
aS'http://www.365essay.com/sanwen001/017.htm'
p17
aS'http://www.365essay.com/sanwen001/018.htm'
p18
aS'http://www.365essay.com/sanwen001/019.htm'
p19
aS'http://www.365essay.com/sanwen001/020.htm'
p20
aS'http://www.365essay.com/sanwen001/021.htm'
p21
aS'http://www.365essay.com/sanwen001/022.htm'
p22
aS'http://www.365essay.com/sanwen001/023.htm'
p23
aS'http://www.365essay.com/sanwen001/024.htm'
p24
aS'http://www.365essay.com/sanwen001/025.htm'
p25
aS'http://www.365essay.com/sanwen001/026.htm'
p26
aS'http://www.365essay.com/sanwen001/027.htm'
p27
aS'http://www.365essay.com/sanwen001/028.htm'
p28
aS'http://www.365essay.com/sanwen001/029.htm'
p29
aS'http://www.365essay.com/sanwen001/030.htm'
p30
aS'http://www.365essay.com/sanwen001/031.htm'
p31
aS'http://www.365essay.com/sanwen001/032.htm'
p32
aS'http://www.365essay.com/sanwen001/033.htm'
p33
aS'http://www.365essay.com/sanwen001/034.htm'
p34
aS'http://www.365essay.com/sanwen001/035.htm'
p35
aS'http://www.365essay.com/sanwen001/036.htm'
p36
aS'http://www.365essay.com/sanwen001/037.htm'
p37
aS'http://www.365essay.com/sanwen001/038.htm'
p38
aS'http://www.365essay.com/sanwen001/039.htm'
p39
aS'http://www.365essay.com/sanwen001/040.htm'
p40
aS'http://www.365essay.com/sanwen001/041.htm'
p41
aS'http://www.365essay.com/sanwen001/042.htm'
p42
aS'http://www.365essay.com/sanwen001/043.htm'
p43
aS'http://www.365essay.com/sanwen001/045.htm'
p44
aS'http://www.365essay.com/sanwen001/046.htm'
p45
aS'http://www.365essay.com/sanwen001/047.htm'
p46
aS'http://www.365essay.com/sanwen001/048.htm'
p47
aS'http://www.365essay.com/sanwen001/049.htm'
p48
aS'http://www.365essay.com/sanwen001/050.htm'
p49
aS'http://www.365essay.com/sanwen001/051.htm'
p50
aS'http://www.365essay.com/sanwen001/052.htm'
p51
aS'http://www.365essay.com/sanwen001/053.htm'
p52
aS'http://www.365essay.com/sanwen001/054.htm'
p53
aS'http://www.365essay.com/sanwen001/055.htm'
p54
aS'http://www.365essay.com/sanwen001/056.htm'
p55
aS'http://www.365essay.com/sanwen001/057.htm'
p56
aS'http://www.365essay.com/sanwen001/058.htm'
p57
aS'http://www.365essay.com/sanwen001/059.htm'
p58
aS'http://www.365essay.com/sanwen001/060.htm'
p59
aS'http://www.365essay.com/sanwen001/061.htm'
p60
aS'http://www.365essay.com/sanwen001/062.htm'
p61
aS'http://www.365essay.com/sanwen001/063.htm'
p62
aS'http://www.365essay.com/sanwen001/064.htm'
p63
aS'http://www.365essay.com/sanwen001/065.htm'
p64
aS'http://www.365essay.com/sanwen001/066.htm'
p65
aS'http://www.365essay.com/sanwen001/067.htm'
p66
aS'http://www.365essay.com/sanwen001/068.htm'
p67
aS'http://www.365essay.com/sanwen001/069.htm'
p68
aS'http://www.365essay.com/sanwen001/070.htm'
p69
aS'http://www.365essay.com/sanwen001/071.htm'
p70
aS'http://www.365essay.com/sanwen001/072.htm'
p71
aS'http://www.365essay.com/sanwen001/073.htm'
p72
aS'http://www.365essay.com/sanwen001/075.htm'
p73
aS'http://www.365essay.com/sanwen001/076.htm'
p74
aS'http://www.365essay.com/sanwen001/077.htm'
p75
aS'http://www.365essay.com/sanwen001/078.htm'
p76
aS'http://www.365essay.com/sanwen001/079.htm'
p77
aS'http://www.365essay.com/sanwen001/080.htm'
p78
aS'http://www.365essay.com/sanwen001/081.htm'
p79
aS'http://www.365essay.com/sanwen001/082.htm'
p80
aS'http://www.365essay.com/sanwen001/083.htm'
p81
aS'http://www.365essay.com/sanwen001/084.htm'
p82
aS'http://www.365essay.com/sanwen001/085.htm'
p83
aS'http://www.365essay.com/sanwen001/086.htm'
p84
aS'http://www.365essay.com/sanwen001/087.htm'
p85
aS'http://www.365essay.com/sanwen001/089.htm'
p86
aS'http://www.365essay.com/sanwen001/090.htm'
p87
aS'http://www.365essay.com/sanwen001/091.htm'
p88
aS'http://www.365essay.com/sanwen001/092.htm'
p89
aS'http://www.365essay.com/sanwen001/093.htm'
p90
aS'http://www.365essay.com/sanwen001/094.htm'
p91
aS'http://www.365essay.com/sanwen001/095.htm'
p92
aS'http://www.365essay.com/sanwen001/096.htm'
p93
aS'http://www.365essay.com/sanwen001/097.htm'
p94
aS'http://www.365essay.com/sanwen001/098.htm'
p95
aS'http://www.365essay.com/sanwen001/099.htm'
p96
aS'http://www.365essay.com/sanwen001/100.htm'
p97
aS'http://www.365essay.com/sanwen002/001.htm'
p98
aS'http://www.365essay.com/sanwen002/002.htm'
p99
aS'http://www.365essay.com/sanwen002/003.htm'
p100
aS'http://www.365essay.com/sanwen002/004.htm'
p101
aS'http://www.365essay.com/sanwen002/005.htm'
p102
aS'http://www.365essay.com/sanwen002/006.htm'
p103
aS'http://www.365essay.com/sanwen002/007.htm'
p104
aS'http://www.365essay.com/sanwen002/008.htm'
p105
aS'http://www.365essay.com/sanwen002/009.htm'
p106
aS'http://www.365essay.com/sanwen002/010.htm'
p107
aS'http://www.365essay.com/sanwen002/011.htm'
p108
aS'http://www.365essay.com/sanwen002/012.htm'
p109
aS'http://www.365essay.com/sanwen002/013.htm'
p110
aS'http://www.365essay.com/sanwen002/014.htm'
p111
aS'http://www.365essay.com/sanwen002/015.htm'
p112
aS'http://www.365essay.com/sanwen002/016.htm'
p113
aS'http://www.365essay.com/sanwen002/017.htm'
p114
aS'http://www.365essay.com/sanwen002/018.htm'
p115
aS'http://www.365essay.com/sanwen002/019.htm'
p116
aS'http://www.365essay.com/sanwen002/020.htm'
p117
aS'http://www.365essay.com/sanwen002/021.htm'
p118
aS'http://www.365essay.com/sanwen002/022.htm'
p119
aS'http://www.365essay.com/sanwen002/023.htm'
p120
aS'http://www.365essay.com/sanwen002/024.htm'
p121
aS'http://www.365essay.com/sanwen002/025.htm'
p122
aS'http://www.365essay.com/sanwen002/026.htm'
p123
aS'http://www.365essay.com/sanwen002/027.htm'
p124
aS'http://www.365essay.com/sanwen002/028.htm'
p125
aS'http://www.365essay.com/sanwen002/029.htm'
p126
aS'http://www.365essay.com/sanwen002/030.htm'
p127
aS'http://www.365essay.com/sanwen002/031.htm'
p128
aS'http://www.365essay.com/sanwen002/032.htm'
p129
aS'http://www.365essay.com/sanwen002/033.htm'
p130
aS'http://www.365essay.com/sanwen002/034.htm'
p131
aS'http://www.365essay.com/sanwen002/035.htm'
p132
aS'http://www.365essay.com/sanwen002/036.htm'
p133
aS'http://www.365essay.com/sanwen002/037.htm'
p134
aS'http://www.365essay.com/sanwen002/038.htm'
p135
aS'http://www.365essay.com/sanwen002/039.htm'
p136
aS'http://www.365essay.com/sanwen002/040.htm'
p137
aS'http://www.365essay.com/sanwen002/041.htm'
p138
aS'http://www.365essay.com/sanwen002/042.htm'
p139
aS'http://www.365essay.com/sanwen002/043.htm'
p140
aS'http://www.365essay.com/sanwen002/044.htm'
p141
aS'http://www.365essay.com/sanwen002/045.htm'
p142
aS'http://www.365essay.com/sanwen002/046.htm'
p143
aS'http://www.365essay.com/sanwen002/047.htm'
p144
aS'http://www.365essay.com/sanwen002/048.htm'
p145
aS'http://www.365essay.com/sanwen002/049.htm'
p146
aS'http://www.365essay.com/sanwen002/050.htm'
p147
aS'http://www.365essay.com/sanwen002/051.htm'
p148
aS'http://www.365essay.com/sanwen002/052.htm'
p149
aS'http://www.365essay.com/sanwen002/053.htm'
p150
aS'http://www.365essay.com/sanwen002/054.htm'
p151
aS'http://www.365essay.com/sanwen002/055.htm'
p152
aS'http://www.365essay.com/sanwen002/056.htm'
p153
aS'http://www.365essay.com/sanwen002/057.htm'
p154
aS'http://www.365essay.com/sanwen002/058.htm'
p155
aS'http://www.365essay.com/sanwen002/059.htm'
p156
aS'http://www.365essay.com/sanwen002/060.htm'
p157
aS'http://www.365essay.com/sanwen002/061.htm'
p158
aS'http://www.365essay.com/sanwen002/062.htm'
p159
aS'http://www.365essay.com/sanwen002/063.htm'
p160
aS'http://www.365essay.com/sanwen002/064.htm'
p161
aS'http://www.365essay.com/sanwen002/065.htm'
p162
aS'http://www.365essay.com/sanwen002/066.htm'
p163
aS'http://www.365essay.com/sanwen002/067.htm'
p164
aS'http://www.365essay.com/sanwen002/068.htm'
p165
aS'http://www.365essay.com/sanwen002/069.htm'
p166
aS'http://www.365essay.com/sanwen002/070.htm'
p167
aS'http://www.365essay.com/sanwen002/071.htm'
p168
aS'http://www.365essay.com/sanwen002/072.htm'
p169
aS'http://www.365essay.com/sanwen002/073.htm'
p170
aS'http://www.365essay.com/sanwen002/074.htm'
p171
aS'http://www.365essay.com/sanwen002/075.htm'
p172
aS'http://www.365essay.com/sanwen002/076.htm'
p173
aS'http://www.365essay.com/sanwen002/077.htm'
p174
aS'http://www.365essay.com/sanwen002/078.htm'
p175
aS'http://www.365essay.com/sanwen002/079.htm'
p176
aS'http://www.365essay.com/sanwen002/080.htm'
p177
aS'http://www.365essay.com/sanwen002/081.htm'
p178
aS'http://www.365essay.com/sanwen002/082.htm'
p179
aS'http://www.365essay.com/sanwen002/083.htm'
p180
aS'http://www.365essay.com/sanwen002/084.htm'
p181
aS'http://www.365essay.com/sanwen002/085.htm'
p182
aS'http://www.365essay.com/sanwen002/086.htm'
p183
aS'http://www.365essay.com/sanwen003/001.htm'
p184
aS'http://www.365essay.com/sanwen003/002.htm'
p185
aS'http://www.365essay.com/sanwen003/004.htm'
p186
aS'http://www.365essay.com/sanwen003/005.htm'
p187
aS'http://www.365essay.com/sanwen003/006.htm'
p188
aS'http://www.365essay.com/sanwen003/007.htm'
p189
aS'http://www.365essay.com/sanwen003/008.htm'
p190
aS'http://www.365essay.com/sanwen003/009.htm'
p191
aS'http://www.365essay.com/sanwen003/010.htm'
p192
aS'http://www.365essay.com/sanwen003/011.htm'
p193
aS'http://www.365essay.com/sanwen003/012.htm'
p194
aS'http://www.365essay.com/sanwen003/013.htm'
p195
aS'http://www.365essay.com/sanwen003/014.htm'
p196
aS'http://www.365essay.com/sanwen003/015.htm'
p197
aS'http://www.365essay.com/sanwen003/016.htm'
p198
aS'http://www.365essay.com/sanwen003/017.htm'
p199
aS'http://www.365essay.com/sanwen003/018.htm'
p200
aS'http://www.365essay.com/sanwen003/019.htm'
p201
aS'http://www.365essay.com/sanwen003/020.htm'
p202
aS'http://www.365essay.com/sanwen003/021.htm'
p203
aS'http://www.365essay.com/sanwen003/022.htm'
p204
aS'http://www.365essay.com/sanwen003/023.htm'
p205
aS'http://www.365essay.com/sanwen003/024.htm'
p206
aS'http://www.365essay.com/sanwen003/025.htm'
p207
aS'http://www.365essay.com/sanwen003/026.htm'
p208
aS'http://www.365essay.com/sanwen003/027.htm'
p209
aS'http://www.365essay.com/sanwen003/028.htm'
p210
aS'http://www.365essay.com/sanwen003/029.htm'
p211
aS'http://www.365essay.com/sanwen003/030.htm'
p212
aS'http://www.365essay.com/sanwen003/031.htm'
p213
aS'http://www.365essay.com/sanwen003/032.htm'
p214
aS'http://www.365essay.com/sanwen003/033.htm'
p215
aS'http://www.365essay.com/sanwen003/034.htm'
p216
aS'http://www.365essay.com/sanwen003/035.htm'
p217
aS'http://www.365essay.com/sanwen003/036.htm'
p218
aS'http://www.365essay.com/sanwen003/037.htm'
p219
aS'http://www.365essay.com/sanwen003/038.htm'
p220
aS'http://www.365essay.com/sanwen003/039.htm'
p221
aS'http://www.365essay.com/sanwen003/040.htm'
p222
aS'http://www.365essay.com/sanwen003/041.htm'
p223
aS'http://www.365essay.com/sanwen003/042.htm'
p224
aS'http://www.365essay.com/sanwen003/043.htm'
p225
aS'http://www.365essay.com/sanwen003/044.htm'
p226
aS'http://www.365essay.com/sanwen003/045.htm'
p227
aS'http://www.365essay.com/sanwen003/046.htm'
p228
aS'http://www.365essay.com/sanwen003/047.htm'
p229
aS'http://www.365essay.com/sanwen003/048.htm'
p230
aS'http://www.365essay.com/sanwen003/049.htm'
p231
aS'http://www.365essay.com/sanwen003/050.htm'
p232
aS'http://www.365essay.com/sanwen003/051.htm'
p233
aS'http://www.365essay.com/sanwen003/052.htm'
p234
aS'http://www.365essay.com/sanwen003/053.htm'
p235
aS'http://www.365essay.com/sanwen003/054.htm'
p236
aS'http://www.365essay.com/sanwen003/055.htm'
p237
aS'http://www.365essay.com/sanwen003/056.htm'
p238
aS'http://www.365essay.com/sanwen003/057.htm'
p239
aS'http://www.365essay.com/sanwen003/058.htm'
p240
aS'http://www.365essay.com/sanwen003/059.htm'
p241
aS'http://www.365essay.com/sanwen003/060.htm'
p242
aS'http://www.365essay.com/sanwen003/061.htm'
p243
aS'http://www.365essay.com/sanwen003/062.htm'
p244
aS'http://www.365essay.com/sanwen003/063.htm'
p245
aS'http://www.365essay.com/sanwen003/064.htm'
p246
aS'http://www.365essay.com/sanwen003/065.htm'
p247
aS'http://www.365essay.com/sanwen003/066.htm'
p248
aS'http://www.365essay.com/sanwen003/067.htm'
p249
aS'http://www.365essay.com/sanwen003/068.htm'
p250
aS'http://www.365essay.com/sanwen003/069.htm'
p251
aS'http://www.365essay.com/sanwen003/070.htm'
p252
aS'http://www.365essay.com/sanwen003/071.htm'
p253
aS'http://www.365essay.com/sanwen003/072.htm'
p254
aS'http://www.365essay.com/sanwen003/073.htm'
p255
aS'http://www.365essay.com/sanwen003/074.htm'
p256
aS'http://www.365essay.com/sanwen003/075.htm'
p257
aS'http://www.365essay.com/sanwen003/076.htm'
p258
aS'http://www.365essay.com/sanwen003/077.htm'
p259
aS'http://www.365essay.com/sanwen003/078.htm'
p260
aS'http://www.365essay.com/sanwen003/079.htm'
p261
aS'http://www.365essay.com/sanwen003/080.htm'
p262
aS'http://www.365essay.com/sanwen003/081.htm'
p263
aS'http://www.365essay.com/sanwen003/082.htm'
p264
aS'http://www.365essay.com/sanwen003/085.htm'
p265
aS'http://www.365essay.com/sanwen003/086.htm'
p266
aS'http://www.365essay.com/sanwen003/088.htm'
p267
aS'http://www.365essay.com/sanwen003/089.htm'
p268
aS'http://www.365essay.com/sanwen003/090.htm'
p269
aS'http://www.365essay.com/sanwen003/091.htm'
p270
aS'http://www.365essay.com/sanwen003/092.htm'
p271
aS'http://www.365essay.com/sanwen003/093.htm'
p272
aS'http://www.365essay.com/sanwen003/094.htm'
p273
aS'http://www.365essay.com/sanwen003/095.htm'
p274
aS'http://www.365essay.com/sanwen003/096.htm'
p275
aS'http://www.365essay.com/sanwen003/097.htm'
p276
aS'http://www.365essay.com/sanwen003/098.htm'
p277
aS'http://www.365essay.com/sanwen003/099.htm'
p278
aS'http://www.365essay.com/sanwen003/101.htm'
p279
aS'http://www.365essay.com/sanwen003/102.htm'
p280
aS'http://www.365essay.com/sanwen003/103.htm'
p281
aS'http://www.365essay.com/sanwen003/104.htm'
p282
aS'http://www.365essay.com/sanwen003/105.htm'
p283
aS'http://www.365essay.com/sanwen004/001.htm'
p284
aS'http://www.365essay.com/sanwen004/002.htm'
p285
aS'http://www.365essay.com/sanwen004/003.htm'
p286
aS'http://www.365essay.com/sanwen004/004.htm'
p287
aS'http://www.365essay.com/sanwen004/005.htm'
p288
aS'http://www.365essay.com/sanwen004/006.htm'
p289
aS'http://www.365essay.com/sanwen004/007.htm'
p290
aS'http://www.365essay.com/sanwen004/008.htm'
p291
aS'http://www.365essay.com/sanwen004/009.htm'
p292
aS'http://www.365essay.com/sanwen004/010.htm'
p293
aS'http://www.365essay.com/sanwen004/011.htm'
p294
aS'http://www.365essay.com/sanwen004/012.htm'
p295
aS'http://www.365essay.com/sanwen004/013.htm'
p296
aS'http://www.365essay.com/sanwen004/014.htm'
p297
aS'http://www.365essay.com/sanwen004/015.htm'
p298
aS'http://www.365essay.com/sanwen004/016.htm'
p299
aS'http://www.365essay.com/sanwen004/017.htm'
p300
aS'http://www.365essay.com/sanwen004/018.htm'
p301
aS'http://www.365essay.com/sanwen004/019.htm'
p302
aS'http://www.365essay.com/sanwen004/020.htm'
p303
aS'http://www.365essay.com/sanwen004/021.htm'
p304
aS'http://www.365essay.com/sanwen004/022.htm'
p305
aS'http://www.365essay.com/sanwen004/023.htm'
p306
aS'http://www.365essay.com/sanwen004/024.htm'
p307
aS'http://www.365essay.com/sanwen004/025.htm'
p308
aS'http://www.365essay.com/sanwen004/026.htm'
p309
aS'http://www.365essay.com/sanwen004/027.htm'
p310
aS'http://www.365essay.com/sanwen004/028.htm'
p311
aS'http://www.365essay.com/sanwen004/029.htm'
p312
aS'http://www.365essay.com/sanwen004/030.htm'
p313
aS'http://www.365essay.com/sanwen004/031.htm'
p314
aS'http://www.365essay.com/sanwen004/032.htm'
p315
aS'http://www.365essay.com/sanwen004/033.htm'
p316
aS'http://www.365essay.com/sanwen004/034.htm'
p317
aS'http://www.365essay.com/sanwen004/035.htm'
p318
aS'http://www.365essay.com/sanwen004/036.htm'
p319
aS'http://www.365essay.com/sanwen004/037.htm'
p320
aS'http://www.365essay.com/sanwen004/038.htm'
p321
aS'http://www.365essay.com/sanwen004/039.htm'
p322
aS'http://www.365essay.com/sanwen004/040.htm'
p323
aS'http://www.365essay.com/sanwen004/041.htm'
p324
aS'http://www.365essay.com/sanwen004/042.htm'
p325
aS'http://www.365essay.com/sanwen004/043.htm'
p326
aS'http://www.365essay.com/sanwen004/044.htm'
p327
aS'http://www.365essay.com/sanwen004/045.htm'
p328
aS'http://www.365essay.com/sanwen004/046.htm'
p329
aS'http://www.365essay.com/sanwen004/047.htm'
p330
aS'http://www.365essay.com/sanwen004/048.htm'
p331
aS'http://www.365essay.com/sanwen004/049.htm'
p332
aS'http://www.365essay.com/sanwen004/050.htm'
p333
aS'http://www.365essay.com/sanwen004/051.htm'
p334
aS'http://www.365essay.com/sanwen004/053.htm'
p335
aS'http://www.365essay.com/sanwen004/054.htm'
p336
aS'http://www.365essay.com/sanwen004/055.htm'
p337
aS'http://www.365essay.com/sanwen004/056.htm'
p338
aS'http://www.365essay.com/sanwen004/057.htm'
p339
aS'http://www.365essay.com/sanwen004/058.htm'
p340
aS'http://www.365essay.com/sanwen004/059.htm'
p341
aS'http://www.365essay.com/sanwen004/060.htm'
p342
aS'http://www.365essay.com/sanwen004/061.htm'
p343
aS'http://www.365essay.com/sanwen004/062.htm'
p344
aS'http://www.365essay.com/sanwen004/063.htm'
p345
aS'http://www.365essay.com/sanwen004/064.htm'
p346
aS'http://www.365essay.com/sanwen004/065.htm'
p347
aS'http://www.365essay.com/sanwen004/066.htm'
p348
aS'http://www.365essay.com/sanwen004/067.htm'
p349
aS'http://www.365essay.com/sanwen004/068.htm'
p350
aS'http://www.365essay.com/sanwen004/069.htm'
p351
aS'http://www.365essay.com/sanwen004/070.htm'
p352
aS'http://www.365essay.com/sanwen004/071.htm'
p353
aS'http://www.365essay.com/sanwen004/072.htm'
p354
aS'http://www.365essay.com/sanwen004/073.htm'
p355
aS'http://www.365essay.com/sanwen004/074.htm'
p356
aS'http://www.365essay.com/sanwen004/075.htm'
p357
aS'http://www.365essay.com/sanwen004/076.htm'
p358
aS'http://www.365essay.com/sanwen004/077.htm'
p359
aS'http://www.365essay.com/sanwen004/078.htm'
p360
aS'http://www.365essay.com/sanwen004/079.htm'
p361
aS'http://www.365essay.com/sanwen004/080.htm'
p362
aS'http://www.365essay.com/sanwen004/081.htm'
p363
aS'http://www.365essay.com/sanwen004/082.htm'
p364
aS'http://www.365essay.com/sanwen004/083.htm'
p365
aS'http://www.365essay.com/sanwen004/084.htm'
p366
aS'http://www.365essay.com/sanwen004/085.htm'
p367
aS'http://www.365essay.com/sanwen004/087.htm'
p368
aS'http://www.365essay.com/sanwen004/088.htm'
p369
aS'http://www.365essay.com/sanwen004/089.htm'
p370
aS'http://www.365essay.com/sanwen004/090.htm'
p371
aS'http://www.365essay.com/sanwen004/091.htm'
p372
aS'http://www.365essay.com/sanwen004/092.htm'
p373
aS'http://www.365essay.com/sanwen004/093.htm'
p374
aS'http://www.365essay.com/sanwen004/094.htm'
p375
aS'http://www.365essay.com/sanwen004/095.htm'
p376
aS'http://www.365essay.com/sanwen004/096.htm'
p377
aS'http://www.365essay.com/sanwen004/097.htm'
p378
aS'http://www.365essay.com/sanwen004/098.htm'
p379
aS'http://www.365essay.com/sanwen004/099.htm'
p380
aS'http://www.365essay.com/sanwen004/100.htm'
p381
aS'http://www.365essay.com/sanwen005/001.htm'
p382
aS'http://www.365essay.com/sanwen005/002.htm'
p383
aS'http://www.365essay.com/sanwen005/003.htm'
p384
aS'http://www.365essay.com/sanwen005/004.htm'
p385
aS'http://www.365essay.com/sanwen005/005.htm'
p386
aS'http://www.365essay.com/sanwen005/006.htm'
p387
aS'http://www.365essay.com/sanwen005/007.htm'
p388
aS'http://www.365essay.com/sanwen005/008.htm'
p389
aS'http://www.365essay.com/sanwen005/009.htm'
p390
aS'http://www.365essay.com/sanwen005/010.htm'
p391
aS'http://www.365essay.com/sanwen005/011.htm'
p392
aS'http://www.365essay.com/sanwen005/012.htm'
p393
aS'http://www.365essay.com/sanwen005/013.htm'
p394
aS'http://www.365essay.com/sanwen005/014.htm'
p395
aS'http://www.365essay.com/sanwen005/015.htm'
p396
aS'http://www.365essay.com/sanwen005/016.htm'
p397
aS'http://www.365essay.com/sanwen005/017.htm'
p398
aS'http://www.365essay.com/sanwen005/018.htm'
p399
aS'http://www.365essay.com/sanwen005/019.htm'
p400
aS'http://www.365essay.com/sanwen005/020.htm'
p401
aS'http://www.365essay.com/sanwen005/021.htm'
p402
aS'http://www.365essay.com/sanwen005/022.htm'
p403
aS'http://www.365essay.com/sanwen005/023.htm'
p404
aS'http://www.365essay.com/sanwen005/024.htm'
p405
aS'http://www.365essay.com/sanwen005/025.htm'
p406
aS'http://www.365essay.com/sanwen005/026.htm'
p407
aS'http://www.365essay.com/sanwen005/027.htm'
p408
aS'http://www.365essay.com/sanwen005/028.htm'
p409
aS'http://www.365essay.com/sanwen005/029.htm'
p410
aS'http://www.365essay.com/sanwen005/030.htm'
p411
aS'http://www.365essay.com/sanwen005/031.htm'
p412
aS'http://www.365essay.com/sanwen005/032.htm'
p413
aS'http://www.365essay.com/sanwen005/033.htm'
p414
aS'http://www.365essay.com/sanwen005/034.htm'
p415
aS'http://www.365essay.com/sanwen005/035.htm'
p416
aS'http://www.365essay.com/sanwen005/036.htm'
p417
aS'http://www.365essay.com/sanwen005/037.htm'
p418
aS'http://www.365essay.com/sanwen005/038.htm'
p419
aS'http://www.365essay.com/sanwen005/039.htm'
p420
aS'http://www.365essay.com/sanwen005/040.htm'
p421
aS'http://www.365essay.com/sanwen005/041.htm'
p422
aS'http://www.365essay.com/sanwen005/042.htm'
p423
aS'http://www.365essay.com/sanwen005/043.htm'
p424
aS'http://www.365essay.com/sanwen005/044.htm'
p425
aS'http://www.365essay.com/sanwen005/045.htm'
p426
aS'http://www.365essay.com/sanwen005/046.htm'
p427
aS'http://www.365essay.com/sanwen005/047.htm'
p428
aS'http://www.365essay.com/sanwen005/048.htm'
p429
aS'http://www.365essay.com/sanwen005/049.htm'
p430
aS'http://www.365essay.com/sanwen005/050.htm'
p431
aS'http://www.365essay.com/sanwen005/051.htm'
p432
aS'http://www.365essay.com/sanwen005/052.htm'
p433
aS'http://www.365essay.com/sanwen005/053.htm'
p434
aS'http://www.365essay.com/sanwen005/054.htm'
p435
aS'http://www.365essay.com/sanwen005/055.htm'
p436
aS'http://www.365essay.com/sanwen005/056.htm'
p437
aS'http://www.365essay.com/sanwen005/057.htm'
p438
aS'http://www.365essay.com/sanwen005/058.htm'
p439
aS'http://www.365essay.com/sanwen005/059.htm'
p440
aS'http://www.365essay.com/sanwen005/060.htm'
p441
aS'http://www.365essay.com/sanwen005/061.htm'
p442
aS'http://www.365essay.com/sanwen005/062.htm'
p443
aS'http://www.365essay.com/sanwen005/063.htm'
p444
aS'http://www.365essay.com/sanwen005/064.htm'
p445
aS'http://www.365essay.com/sanwen005/065.htm'
p446
aS'http://www.365essay.com/sanwen005/066.htm'
p447
aS'http://www.365essay.com/sanwen005/067.htm'
p448
aS'http://www.365essay.com/sanwen005/068.htm'
p449
aS'http://www.365essay.com/sanwen005/069.htm'
p450
aS'http://www.365essay.com/sanwen005/070.htm'
p451
aS'http://www.365essay.com/sanwen005/071.htm'
p452
aS'http://www.365essay.com/sanwen005/072.htm'
p453
aS'http://www.365essay.com/sanwen005/073.htm'
p454
aS'http://www.365essay.com/sanwen005/074.htm'
p455
aS'http://www.365essay.com/sanwen005/075.htm'
p456
aS'http://www.365essay.com/sanwen005/076.htm'
p457
aS'http://www.365essay.com/sanwen005/077.htm'
p458
aS'http://www.365essay.com/sanwen005/078.htm'
p459
aS'http://www.365essay.com/sanwen005/079.htm'
p460
aS'http://www.365essay.com/sanwen005/080.htm'
p461
aS'http://www.365essay.com/sanwen005/081.htm'
p462
aS'http://www.365essay.com/sanwen005/082.htm'
p463
aS'http://www.365essay.com/sanwen005/083.htm'
p464
aS'http://www.365essay.com/sanwen005/084.htm'
p465
aS'http://www.365essay.com/sanwen005/085.htm'
p466
aS'http://www.365essay.com/sanwen005/086.htm'
p467
aS'http://www.365essay.com/sanwen005/087.htm'
p468
aS'http://www.365essay.com/sanwen005/088.htm'
p469
aS'http://www.365essay.com/sanwen005/089.htm'
p470
aS'http://www.365essay.com/sanwen005/090.htm'
p471
aS'http://www.365essay.com/sanwen005/091.htm'
p472
aS'http://www.365essay.com/sanwen005/092.htm'
p473
aS'http://www.365essay.com/sanwen005/093.htm'
p474
aS'http://www.365essay.com/sanwen005/094.htm'
p475
aS'http://www.365essay.com/sanwen005/095.htm'
p476
aS'http://www.365essay.com/sanwen005/096.htm'
p477
aS'http://www.365essay.com/sanwen005/097.htm'
p478
aS'http://www.365essay.com/sanwen005/098.htm'
p479
aS'http://www.365essay.com/sanwen005/099.htm'
p480
aS'http://www.365essay.com/sanwen005/100.htm'
p481
aS'http://www.365essay.com/sanwen005/101.htm'
p482
aS'http://www.365essay.com/sanwen005/102.htm'
p483
aS'http://www.365essay.com/sanwen005/103.htm'
p484
aS'http://www.365essay.com/sanwen005/104.htm'
p485
aS'http://www.365essay.com/sanwen005/105.htm'
p486
aS'http://www.365essay.com/sanwen005/106.htm'
p487
aS'http://www.365essay.com/sanwen005/107.htm'
p488
aS'http://www.365essay.com/sanwen005/108.htm'
p489
aS'http://www.365essay.com/sanwen005/109.htm'
p490
aS'http://www.365essay.com/sanwen005/110.htm'
p491
aS'http://www.365essay.com/sanwen006/001.htm'
p492
aS'http://www.365essay.com/sanwen006/002.htm'
p493
aS'http://www.365essay.com/sanwen006/003.htm'
p494
aS'http://www.365essay.com/sanwen006/004.htm'
p495
aS'http://www.365essay.com/sanwen006/005.htm'
p496
aS'http://www.365essay.com/sanwen006/006.htm'
p497
aS'http://www.365essay.com/sanwen006/007.htm'
p498
aS'http://www.365essay.com/sanwen006/008.htm'
p499
aS'http://www.365essay.com/sanwen006/009.htm'
p500
aS'http://www.365essay.com/sanwen006/010.htm'
p501
aS'http://www.365essay.com/sanwen006/011.htm'
p502
aS'http://www.365essay.com/sanwen006/012.htm'
p503
aS'http://www.365essay.com/sanwen006/013.htm'
p504
aS'http://www.365essay.com/sanwen006/015.htm'
p505
aS'http://www.365essay.com/sanwen006/016.htm'
p506
aS'http://www.365essay.com/sanwen006/017.htm'
p507
aS'http://www.365essay.com/sanwen006/018.htm'
p508
aS'http://www.365essay.com/sanwen006/019.htm'
p509
aS'http://www.365essay.com/sanwen006/020.htm'
p510
aS'http://www.365essay.com/sanwen006/021.htm'
p511
aS'http://www.365essay.com/sanwen006/022.htm'
p512
aS'http://www.365essay.com/sanwen006/023.htm'
p513
aS'http://www.365essay.com/sanwen006/024.htm'
p514
aS'http://www.365essay.com/sanwen006/025.htm'
p515
aS'http://www.365essay.com/sanwen006/026.htm'
p516
aS'http://www.365essay.com/sanwen006/027.htm'
p517
aS'http://www.365essay.com/sanwen006/028.htm'
p518
aS'http://www.365essay.com/sanwen006/029.htm'
p519
aS'http://www.365essay.com/sanwen006/030.htm'
p520
aS'http://www.365essay.com/sanwen006/031.htm'
p521
aS'http://www.365essay.com/sanwen006/032.htm'
p522
aS'http://www.365essay.com/sanwen006/034.htm'
p523
aS'http://www.365essay.com/sanwen006/035.htm'
p524
aS'http://www.365essay.com/sanwen006/036.htm'
p525
aS'http://www.365essay.com/sanwen006/037.htm'
p526
aS'http://www.365essay.com/sanwen006/038.htm'
p527
aS'http://www.365essay.com/sanwen006/039.htm'
p528
aS'http://www.365essay.com/sanwen006/040.htm'
p529
aS'http://www.365essay.com/sanwen006/041.htm'
p530
aS'http://www.365essay.com/sanwen006/042.htm'
p531
aS'http://www.365essay.com/sanwen006/043.htm'
p532
aS'http://www.365essay.com/sanwen006/044.htm'
p533
aS'http://www.365essay.com/sanwen006/045.htm'
p534
aS'http://www.365essay.com/sanwen006/046.htm'
p535
aS'http://www.365essay.com/sanwen006/047.htm'
p536
aS'http://www.365essay.com/sanwen006/048.htm'
p537
aS'http://www.365essay.com/sanwen006/049.htm'
p538
aS'http://www.365essay.com/sanwen006/050.htm'
p539
aS'http://www.365essay.com/sanwen006/051.htm'
p540
aS'http://www.365essay.com/sanwen006/052.htm'
p541
aS'http://www.365essay.com/sanwen006/053.htm'
p542
aS'http://www.365essay.com/sanwen006/055.htm'
p543
aS'http://www.365essay.com/sanwen006/056.htm'
p544
aS'http://www.365essay.com/sanwen006/057.htm'
p545
aS'http://www.365essay.com/sanwen006/058.htm'
p546
aS'http://www.365essay.com/sanwen006/059.htm'
p547
aS'http://www.365essay.com/sanwen006/060.htm'
p548
aS'http://www.365essay.com/sanwen006/061.htm'
p549
aS'http://www.365essay.com/sanwen006/062.htm'
p550
aS'http://www.365essay.com/sanwen006/063.htm'
p551
aS'http://www.365essay.com/sanwen006/064.htm'
p552
aS'http://www.365essay.com/sanwen006/066.htm'
p553
aS'http://www.365essay.com/sanwen006/067.htm'
p554
aS'http://www.365essay.com/sanwen006/068.htm'
p555
aS'http://www.365essay.com/sanwen006/069.htm'
p556
aS'http://www.365essay.com/sanwen006/070.htm'
p557
aS'http://www.365essay.com/sanwen006/071.htm'
p558
aS'http://www.365essay.com/sanwen006/072.htm'
p559
aS'http://www.365essay.com/sanwen006/073.htm'
p560
aS'http://www.365essay.com/sanwen006/074.htm'
p561
aS'http://www.365essay.com/sanwen006/075.htm'
p562
aS'http://www.365essay.com/sanwen006/076.htm'
p563
aS'http://www.365essay.com/sanwen006/077.htm'
p564
aS'http://www.365essay.com/sanwen006/078.htm'
p565
aS'http://www.365essay.com/sanwen006/079.htm'
p566
aS'http://www.365essay.com/sanwen006/080.htm'
p567
aS'http://www.365essay.com/sanwen006/081.htm'
p568
aS'http://www.365essay.com/sanwen006/082.htm'
p569
aS'http://www.365essay.com/sanwen006/083.htm'
p570
aS'http://www.365essay.com/sanwen006/084.htm'
p571
aS'http://www.365essay.com/sanwen006/085.htm'
p572
aS'http://www.365essay.com/sanwen006/086.htm'
p573
aS'http://www.365essay.com/sanwen006/087.htm'
p574
aS'http://www.365essay.com/sanwen006/088.htm'
p575
aS'http://www.365essay.com/sanwen006/089.htm'
p576
aS'http://www.365essay.com/sanwen006/090.htm'
p577
aS'http://www.365essay.com/sanwen006/091.htm'
p578
aS'http://www.365essay.com/sanwen006/092.htm'
p579
aS'http://www.365essay.com/sanwen006/093.htm'
p580
aS'http://www.365essay.com/sanwen006/095.htm'
p581
aS'http://www.365essay.com/sanwen006/096.htm'
p582
aS'http://www.365essay.com/sanwen006/097.htm'
p583
aS'http://www.365essay.com/sanwen006/098.htm'
p584
aS'http://www.365essay.com/sanwen006/099.htm'
p585
aS'http://www.365essay.com/sanwen006/100.htm'
p586
aS'http://www.365essay.com/sanwen006/101.htm'
p587
aS'http://www.365essay.com/sanwen006/102.htm'
p588
aS'http://www.365essay.com/sanwen006/104.htm'
p589
aS'http://www.365essay.com/sanwen006/105.htm'
p590
aS'http://www.365essay.com/sanwen006/106.htm'
p591
aS'http://www.365essay.com/sanwen006/107.htm'
p592
aS'http://www.365essay.com/sanwen006/108.htm'
p593
aS'http://www.365essay.com/sanwen006/109.htm'
p594
aS'http://www.365essay.com/sanwen006/110.htm'
p595
aS'http://www.365essay.com/sanwen006/111.htm'
p596
aS'http://www.365essay.com/sanwen006/112.htm'
p597
aS'http://www.365essay.com/sanwen006/113.htm'
p598
aS'http://www.365essay.com/sanwen006/114.htm'
p599
aS'http://www.365essay.com/sanwen006/115.htm'
p600
aS'http://www.365essay.com/sanwen006/116.htm'
p601
aS'http://www.365essay.com/sanwen006/117.htm'
p602
aS'http://www.365essay.com/sanwen006/118.htm'
p603
aS'http://www.365essay.com/sanwen006/119.htm'
p604
aS'http://www.365essay.com/sanwen006/120.htm'
p605
aS'http://www.365essay.com/sanwen006/121.htm'
p606
aS'http://www.365essay.com/sanwen006/122.htm'
p607
aS'http://www.365essay.com/sanwen007/001.htm'
p608
aS'http://www.365essay.com/sanwen007/002.htm'
p609
aS'http://www.365essay.com/sanwen007/003.htm'
p610
aS'http://www.365essay.com/sanwen007/004.htm'
p611
aS'http://www.365essay.com/sanwen007/005.htm'
p612
aS'http://www.365essay.com/sanwen007/006.htm'
p613
aS'http://www.365essay.com/sanwen007/007.htm'
p614
aS'http://www.365essay.com/sanwen007/008.htm'
p615
aS'http://www.365essay.com/sanwen007/009.htm'
p616
aS'http://www.365essay.com/sanwen007/010.htm'
p617
aS'http://www.365essay.com/sanwen007/011.htm'
p618
aS'http://www.365essay.com/sanwen007/012.htm'
p619
aS'http://www.365essay.com/sanwen007/013.htm'
p620
aS'http://www.365essay.com/sanwen007/014.htm'
p621
aS'http://www.365essay.com/sanwen007/015.htm'
p622
aS'http://www.365essay.com/sanwen007/016.htm'
p623
aS'http://www.365essay.com/sanwen007/017.htm'
p624
aS'http://www.365essay.com/sanwen007/018.htm'
p625
aS'http://www.365essay.com/sanwen007/019.htm'
p626
aS'http://www.365essay.com/sanwen007/020.htm'
p627
aS'http://www.365essay.com/sanwen007/021.htm'
p628
aS'http://www.365essay.com/sanwen007/022.htm'
p629
aS'http://www.365essay.com/sanwen007/023.htm'
p630
aS'http://www.365essay.com/sanwen007/024.htm'
p631
aS'http://www.365essay.com/sanwen007/025.htm'
p632
aS'http://www.365essay.com/sanwen007/026.htm'
p633
aS'http://www.365essay.com/sanwen007/027.htm'
p634
aS'http://www.365essay.com/sanwen007/028.htm'
p635
aS'http://www.365essay.com/sanwen007/029.htm'
p636
aS'http://www.365essay.com/sanwen007/031.htm'
p637
aS'http://www.365essay.com/sanwen007/032.htm'
p638
aS'http://www.365essay.com/sanwen007/033.htm'
p639
aS'http://www.365essay.com/sanwen007/034.htm'
p640
aS'http://www.365essay.com/sanwen007/035.htm'
p641
aS'http://www.365essay.com/sanwen007/036.htm'
p642
aS'http://www.365essay.com/sanwen007/037.htm'
p643
aS'http://www.365essay.com/sanwen007/038.htm'
p644
aS'http://www.365essay.com/sanwen007/039.htm'
p645
aS'http://www.365essay.com/sanwen007/040.htm'
p646
aS'http://www.365essay.com/sanwen007/041.htm'
p647
aS'http://www.365essay.com/sanwen007/042.htm'
p648
aS'http://www.365essay.com/sanwen007/043.htm'
p649
aS'http://www.365essay.com/sanwen007/044.htm'
p650
aS'http://www.365essay.com/sanwen007/045.htm'
p651
aS'http://www.365essay.com/sanwen007/046.htm'
p652
aS'http://www.365essay.com/sanwen007/047.htm'
p653
aS'http://www.365essay.com/sanwen007/048.htm'
p654
aS'http://www.365essay.com/sanwen007/049.htm'
p655
aS'http://www.365essay.com/sanwen007/050.htm'
p656
aS'http://www.365essay.com/sanwen007/051.htm'
p657
aS'http://www.365essay.com/sanwen007/052.htm'
p658
aS'http://www.365essay.com/sanwen007/053.htm'
p659
aS'http://www.365essay.com/sanwen007/054.htm'
p660
aS'http://www.365essay.com/sanwen007/055.htm'
p661
aS'http://www.365essay.com/sanwen007/056.htm'
p662
aS'http://www.365essay.com/sanwen007/058.htm'
p663
aS'http://www.365essay.com/sanwen007/059.htm'
p664
aS'http://www.365essay.com/sanwen007/061.htm'
p665
aS'http://www.365essay.com/sanwen007/063.htm'
p666
aS'http://www.365essay.com/sanwen007/064.htm'
p667
aS'http://www.365essay.com/sanwen007/065.htm'
p668
aS'http://www.365essay.com/sanwen007/066.htm'
p669
aS'http://www.365essay.com/sanwen007/067.htm'
p670
aS'http://www.365essay.com/sanwen007/068.htm'
p671
aS'http://www.365essay.com/sanwen007/069.htm'
p672
aS'http://www.365essay.com/sanwen007/070.htm'
p673
aS'http://www.365essay.com/sanwen007/071.htm'
p674
aS'http://www.365essay.com/sanwen007/072.htm'
p675
aS'http://www.365essay.com/sanwen007/073.htm'
p676
aS'http://www.365essay.com/sanwen007/074.htm'
p677
aS'http://www.365essay.com/sanwen007/076.htm'
p678
aS'http://www.365essay.com/sanwen007/077.htm'
p679
aS'http://www.365essay.com/sanwen007/078.htm'
p680
aS'http://www.365essay.com/sanwen007/079.htm'
p681
aS'http://www.365essay.com/sanwen007/080.htm'
p682
aS'http://www.365essay.com/sanwen007/081.htm'
p683
aS'http://www.365essay.com/sanwen007/082.htm'
p684
aS'http://www.365essay.com/sanwen007/083.htm'
p685
aS'http://www.365essay.com/sanwen007/084.htm'
p686
aS'http://www.365essay.com/sanwen007/085.htm'
p687
aS'http://www.365essay.com/sanwen007/086.htm'
p688
aS'http://www.365essay.com/sanwen007/087.htm'
p689
aS'http://www.365essay.com/sanwen007/088.htm'
p690
aS'http://www.365essay.com/sanwen007/089.htm'
p691
aS'http://www.365essay.com/sanwen007/090.htm'
p692
aS'http://www.365essay.com/sanwen007/091.htm'
p693
aS'http://www.365essay.com/sanwen007/092.htm'
p694
aS'http://www.365essay.com/sanwen007/093.htm'
p695
aS'http://www.365essay.com/sanwen008/001.htm'
p696
aS'http://www.365essay.com/sanwen008/002.htm'
p697
aS'http://www.365essay.com/sanwen008/003.htm'
p698
aS'http://www.365essay.com/sanwen008/004.htm'
p699
aS'http://www.365essay.com/sanwen008/006.htm'
p700
aS'http://www.365essay.com/sanwen008/007.htm'
p701
aS'http://www.365essay.com/sanwen008/008.htm'
p702
aS'http://www.365essay.com/sanwen008/009.htm'
p703
aS'http://www.365essay.com/sanwen008/011.htm'
p704
aS'http://www.365essay.com/sanwen008/012.htm'
p705
aS'http://www.365essay.com/sanwen008/013.htm'
p706
aS'http://www.365essay.com/sanwen008/015.htm'
p707
aS'http://www.365essay.com/sanwen008/016.htm'
p708
aS'http://www.365essay.com/sanwen008/017.htm'
p709
aS'http://www.365essay.com/sanwen008/018.htm'
p710
aS'http://www.365essay.com/sanwen008/019.htm'
p711
aS'http://www.365essay.com/sanwen008/020.htm'
p712
aS'http://www.365essay.com/sanwen008/021.htm'
p713
aS'http://www.365essay.com/sanwen008/022.htm'
p714
aS'http://www.365essay.com/sanwen008/023.htm'
p715
aS'http://www.365essay.com/sanwen008/024.htm'
p716
aS'http://www.365essay.com/sanwen008/025.htm'
p717
aS'http://www.365essay.com/sanwen008/026.htm'
p718
aS'http://www.365essay.com/sanwen008/027.htm'
p719
aS'http://www.365essay.com/sanwen008/028.htm'
p720
aS'http://www.365essay.com/sanwen008/029.htm'
p721
aS'http://www.365essay.com/sanwen008/030.htm'
p722
aS'http://www.365essay.com/sanwen008/031.htm'
p723
aS'http://www.365essay.com/sanwen008/032.htm'
p724
aS'http://www.365essay.com/sanwen008/033.htm'
p725
aS'http://www.365essay.com/sanwen008/034.htm'
p726
aS'http://www.365essay.com/sanwen008/035.htm'
p727
aS'http://www.365essay.com/sanwen008/036.htm'
p728
aS'http://www.365essay.com/sanwen008/037.htm'
p729
aS'http://www.365essay.com/sanwen008/038.htm'
p730
aS'http://www.365essay.com/sanwen008/039.htm'
p731
aS'http://www.365essay.com/sanwen008/040.htm'
p732
aS'http://www.365essay.com/sanwen008/041.htm'
p733
aS'http://www.365essay.com/sanwen008/042.htm'
p734
aS'http://www.365essay.com/sanwen008/043.htm'
p735
aS'http://www.365essay.com/sanwen008/044.htm'
p736
aS'http://www.365essay.com/sanwen008/045.htm'
p737
aS'http://www.365essay.com/sanwen008/046.htm'
p738
aS'http://www.365essay.com/sanwen008/047.htm'
p739
aS'http://www.365essay.com/sanwen008/048.htm'
p740
aS'http://www.365essay.com/sanwen008/049.htm'
p741
aS'http://www.365essay.com/sanwen008/050.htm'
p742
aS'http://www.365essay.com/sanwen008/051.htm'
p743
aS'http://www.365essay.com/sanwen008/052.htm'
p744
aS'http://www.365essay.com/sanwen008/053.htm'
p745
aS'http://www.365essay.com/sanwen008/054.htm'
p746
aS'http://www.365essay.com/sanwen008/055.htm'
p747
aS'http://www.365essay.com/sanwen008/056.htm'
p748
aS'http://www.365essay.com/sanwen008/057.htm'
p749
aS'http://www.365essay.com/sanwen008/058.htm'
p750
aS'http://www.365essay.com/sanwen008/059.htm'
p751
aS'http://www.365essay.com/sanwen008/060.htm'
p752
aS'http://www.365essay.com/sanwen008/061.htm'
p753
aS'http://www.365essay.com/sanwen008/062.htm'
p754
aS'http://www.365essay.com/sanwen008/063.htm'
p755
aS'http://www.365essay.com/sanwen008/064.htm'
p756
aS'http://www.365essay.com/sanwen008/065.htm'
p757
aS'http://www.365essay.com/sanwen008/066.htm'
p758
aS'http://www.365essay.com/sanwen008/067.htm'
p759
aS'http://www.365essay.com/sanwen008/068.htm'
p760
aS'http://www.365essay.com/sanwen008/069.htm'
p761
aS'http://www.365essay.com/sanwen008/070.htm'
p762
aS'http://www.365essay.com/sanwen008/071.htm'
p763
aS'http://www.365essay.com/sanwen008/072.htm'
p764
aS'http://www.365essay.com/sanwen008/073.htm'
p765
aS'http://www.365essay.com/sanwen008/074.htm'
p766
aS'http://www.365essay.com/sanwen008/075.htm'
p767
aS'http://www.365essay.com/sanwen008/076.htm'
p768
aS'http://www.365essay.com/sanwen008/077.htm'
p769
aS'http://www.365essay.com/sanwen008/078.htm'
p770
aS'http://www.365essay.com/sanwen008/079.htm'
p771
aS'http://www.365essay.com/sanwen008/080.htm'
p772
aS'http://www.365essay.com/sanwen008/081.htm'
p773
aS'http://www.365essay.com/sanwen008/082.htm'
p774
aS'http://www.365essay.com/sanwen008/083.htm'
p775
aS'http://www.365essay.com/sanwen008/084.htm'
p776
aS'http://www.365essay.com/sanwen008/085.htm'
p777
aS'http://www.365essay.com/sanwen008/086.htm'
p778
aS'http://www.365essay.com/sanwen008/087.htm'
p779
aS'http://www.365essay.com/sanwen008/088.htm'
p780
aS'http://www.365essay.com/sanwen008/089.htm'
p781
aS'http://www.365essay.com/sanwen008/090.htm'
p782
aS'http://www.365essay.com/sanwen008/091.htm'
p783
aS'http://www.365essay.com/sanwen008/092.htm'
p784
aS'http://www.365essay.com/sanwen008/093.htm'
p785
aS'http://www.365essay.com/sanwen008/094.htm'
p786
aS'http://www.365essay.com/sanwen008/095.htm'
p787
aS'http://www.365essay.com/sanwen008/097.htm'
p788
aS'http://www.365essay.com/sanwen008/098.htm'
p789
aS'http://www.365essay.com/sanwen008/099.htm'
p790
aS'http://www.365essay.com/sanwen008/100.htm'
p791
aS'http://www.365essay.com/sanwen008/101.htm'
p792
aS'http://www.365essay.com/sanwen008/102.htm'
p793
aS'http://www.365essay.com/sanwen008/103.htm'
p794
aS'http://www.365essay.com/sanwen008/104.htm'
p795
aS'http://www.365essay.com/sanwen008/105.htm'
p796
aS'http://www.365essay.com/sanwen008/106.htm'
p797
aS'http://www.365essay.com/sanwen008/107.htm'
p798
aS'http://www.365essay.com/sanwen008/108.htm'
p799
aS'http://www.365essay.com/sanwen008/109.htm'
p800
aS'http://www.365essay.com/sanwen008/110.htm'
p801
aS'http://www.365essay.com/sanwen008/111.htm'
p802
aS'http://www.365essay.com/sanwen008/112.htm'
p803
aS'http://www.365essay.com/sanwen008/113.htm'
p804
aS'http://www.365essay.com/sanwen008/114.htm'
p805
aS'http://www.365essay.com/sanwen008/115.htm'
p806
aS'http://www.365essay.com/sanwen008/116.htm'
p807
aS'http://www.365essay.com/sanwen008/117.htm'
p808
aS'http://www.365essay.com/sanwen008/118.htm'
p809
aS'http://www.365essay.com/sanwen008/119.htm'
p810
aS'http://www.365essay.com/sanwen008/120.htm'
p811
aS'http://www.365essay.com/sanwen008/121.htm'
p812
a.