(lp0
S'http://www.xiejiaxin.com/?post=1'
p1
aS'http://www.xiejiaxin.com/?post=2'
p2
aS'http://www.xiejiaxin.com/?post=3'
p3
aS'http://www.xiejiaxin.com/?post=4'
p4
aS'http://www.xiejiaxin.com/?post=5'
p5
aS'http://www.xiejiaxin.com/?post=6'
p6
aS'http://www.xiejiaxin.com/?post=7'
p7
aS'http://www.xiejiaxin.com/?post=8'
p8
aS'http://www.xiejiaxin.com/?post=9'
p9
aS'http://www.xiejiaxin.com/?post=10'
p10
aS'http://www.xiejiaxin.com/?post=11'
p11
aS'http://www.xiejiaxin.com/?post=12'
p12
aS'http://www.xiejiaxin.com/?post=13'
p13
aS'http://www.xiejiaxin.com/?post=14'
p14
aS'http://www.xiejiaxin.com/?post=15'
p15
aS'http://www.xiejiaxin.com/?post=16'
p16
aS'http://www.xiejiaxin.com/?post=17'
p17
aS'http://www.xiejiaxin.com/?post=18'
p18
aS'http://www.xiejiaxin.com/?post=19'
p19
aS'http://www.xiejiaxin.com/?post=20'
p20
aS'http://www.xiejiaxin.com/?post=21'
p21
aS'http://www.xiejiaxin.com/?post=22'
p22
aS'http://www.xiejiaxin.com/?post=23'
p23
aS'http://www.xiejiaxin.com/?post=24'
p24
aS'http://www.xiejiaxin.com/?post=25'
p25
aS'http://www.xiejiaxin.com/?post=26'
p26
aS'http://www.xiejiaxin.com/?post=27'
p27
aS'http://www.xiejiaxin.com/?post=28'
p28
aS'http://www.xiejiaxin.com/?post=29'
p29
aS'http://www.xiejiaxin.com/?post=30'
p30
aS'http://www.xiejiaxin.com/?post=31'
p31
aS'http://www.xiejiaxin.com/?post=32'
p32
aS'http://www.xiejiaxin.com/?post=33'
p33
aS'http://www.xiejiaxin.com/?post=34'
p34
aS'http://www.xiejiaxin.com/?post=35'
p35
aS'http://www.xiejiaxin.com/?post=36'
p36
aS'http://www.xiejiaxin.com/?post=37'
p37
aS'http://www.xiejiaxin.com/?post=38'
p38
aS'http://www.xiejiaxin.com/?post=39'
p39
aS'http://www.xiejiaxin.com/?post=40'
p40
aS'http://www.xiejiaxin.com/?post=41'
p41
aS'http://www.xiejiaxin.com/?post=42'
p42
aS'http://www.xiejiaxin.com/?post=43'
p43
aS'http://www.xiejiaxin.com/?post=44'
p44
aS'http://www.xiejiaxin.com/?post=45'
p45
aS'http://www.xiejiaxin.com/?post=46'
p46
aS'http://www.xiejiaxin.com/?post=47'
p47
aS'http://www.xiejiaxin.com/?post=48'
p48
aS'http://www.xiejiaxin.com/?post=49'
p49
aS'http://www.xiejiaxin.com/?post=50'
p50
aS'http://www.xiejiaxin.com/?post=51'
p51
aS'http://www.xiejiaxin.com/?post=52'
p52
aS'http://www.xiejiaxin.com/?post=53'
p53
aS'http://www.xiejiaxin.com/?post=54'
p54
aS'http://www.xiejiaxin.com/?post=55'
p55
aS'http://www.xiejiaxin.com/?post=56'
p56
aS'http://www.xiejiaxin.com/?post=57'
p57
aS'http://www.xiejiaxin.com/?post=58'
p58
aS'http://www.xiejiaxin.com/?post=59'
p59
aS'http://www.xiejiaxin.com/?post=60'
p60
aS'http://www.xiejiaxin.com/?post=61'
p61
aS'http://www.xiejiaxin.com/?post=62'
p62
aS'http://www.xiejiaxin.com/?post=63'
p63
aS'http://www.xiejiaxin.com/?post=64'
p64
aS'http://www.xiejiaxin.com/?post=65'
p65
aS'http://www.xiejiaxin.com/?post=66'
p66
aS'http://www.xiejiaxin.com/?post=67'
p67
aS'http://www.xiejiaxin.com/?post=68'
p68
aS'http://www.xiejiaxin.com/?post=69'
p69
aS'http://www.xiejiaxin.com/?post=70'
p70
aS'http://www.xiejiaxin.com/?post=71'
p71
aS'http://www.xiejiaxin.com/?post=72'
p72
aS'http://www.xiejiaxin.com/?post=73'
p73
aS'http://www.xiejiaxin.com/?post=74'
p74
aS'http://www.xiejiaxin.com/?post=75'
p75
aS'http://www.xiejiaxin.com/?post=76'
p76
aS'http://www.xiejiaxin.com/?post=77'
p77
aS'http://www.xiejiaxin.com/?post=78'
p78
aS'http://www.xiejiaxin.com/?post=79'
p79
aS'http://www.xiejiaxin.com/?post=80'
p80
aS'http://www.xiejiaxin.com/?post=81'
p81
aS'http://www.xiejiaxin.com/?post=82'
p82
aS'http://www.xiejiaxin.com/?post=83'
p83
aS'http://www.xiejiaxin.com/?post=84'
p84
aS'http://www.xiejiaxin.com/?post=85'
p85
aS'http://www.xiejiaxin.com/?post=86'
p86
aS'http://www.xiejiaxin.com/?post=87'
p87
aS'http://www.xiejiaxin.com/?post=88'
p88
aS'http://www.xiejiaxin.com/?post=89'
p89
aS'http://www.xiejiaxin.com/?post=90'
p90
aS'http://www.xiejiaxin.com/?post=91'
p91
aS'http://www.xiejiaxin.com/?post=92'
p92
aS'http://www.xiejiaxin.com/?post=93'
p93
aS'http://www.xiejiaxin.com/?post=94'
p94
aS'http://www.xiejiaxin.com/?post=95'
p95
aS'http://www.xiejiaxin.com/?post=96'
p96
aS'http://www.xiejiaxin.com/?post=97'
p97
aS'http://www.xiejiaxin.com/?post=98'
p98
aS'http://www.xiejiaxin.com/?post=99'
p99
aS'http://www.xiejiaxin.com/?post=100'
p100
aS'http://www.xiejiaxin.com/?post=101'
p101
aS'http://www.xiejiaxin.com/?post=102'
p102
aS'http://www.xiejiaxin.com/?post=103'
p103
aS'http://www.xiejiaxin.com/?post=104'
p104
aS'http://www.xiejiaxin.com/?post=105'
p105
aS'http://www.xiejiaxin.com/?post=106'
p106
aS'http://www.xiejiaxin.com/?post=107'
p107
aS'http://www.xiejiaxin.com/?post=108'
p108
aS'http://www.xiejiaxin.com/?post=109'
p109
aS'http://www.xiejiaxin.com/?post=110'
p110
aS'http://www.xiejiaxin.com/?post=111'
p111
aS'http://www.xiejiaxin.com/?post=112'
p112
aS'http://www.xiejiaxin.com/?post=113'
p113
aS'http://www.xiejiaxin.com/?post=114'
p114
aS'http://www.xiejiaxin.com/?post=115'
p115
aS'http://www.xiejiaxin.com/?post=116'
p116
aS'http://www.xiejiaxin.com/?post=117'
p117
aS'http://www.xiejiaxin.com/?post=118'
p118
aS'http://www.xiejiaxin.com/?post=119'
p119
aS'http://www.xiejiaxin.com/?post=120'
p120
aS'http://www.xiejiaxin.com/?post=121'
p121
aS'http://www.xiejiaxin.com/?post=122'
p122
aS'http://www.xiejiaxin.com/?post=123'
p123
aS'http://www.xiejiaxin.com/?post=124'
p124
aS'http://www.xiejiaxin.com/?post=125'
p125
aS'http://www.xiejiaxin.com/?post=126'
p126
aS'http://www.xiejiaxin.com/?post=127'
p127
aS'http://www.xiejiaxin.com/?post=128'
p128
aS'http://www.xiejiaxin.com/?post=129'
p129
aS'http://www.xiejiaxin.com/?post=130'
p130
aS'http://www.xiejiaxin.com/?post=131'
p131
aS'http://www.xiejiaxin.com/?post=132'
p132
aS'http://www.xiejiaxin.com/?post=133'
p133
aS'http://www.xiejiaxin.com/?post=134'
p134
aS'http://www.xiejiaxin.com/?post=135'
p135
aS'http://www.xiejiaxin.com/?post=136'
p136
aS'http://www.xiejiaxin.com/?post=137'
p137
aS'http://www.xiejiaxin.com/?post=138'
p138
aS'http://www.xiejiaxin.com/?post=139'
p139
aS'http://www.xiejiaxin.com/?post=140'
p140
aS'http://www.xiejiaxin.com/?post=141'
p141
aS'http://www.xiejiaxin.com/?post=142'
p142
aS'http://www.xiejiaxin.com/?post=143'
p143
aS'http://www.xiejiaxin.com/?post=144'
p144
aS'http://www.xiejiaxin.com/?post=145'
p145
aS'http://www.xiejiaxin.com/?post=146'
p146
aS'http://www.xiejiaxin.com/?post=147'
p147
aS'http://www.xiejiaxin.com/?post=148'
p148
aS'http://www.xiejiaxin.com/?post=149'
p149
aS'http://www.xiejiaxin.com/?post=150'
p150
aS'http://www.xiejiaxin.com/?post=151'
p151
aS'http://www.xiejiaxin.com/?post=152'
p152
aS'http://www.xiejiaxin.com/?post=153'
p153
aS'http://www.xiejiaxin.com/?post=154'
p154
aS'http://www.xiejiaxin.com/?post=155'
p155
aS'http://www.xiejiaxin.com/?post=156'
p156
aS'http://www.xiejiaxin.com/?post=157'
p157
aS'http://www.xiejiaxin.com/?post=158'
p158
aS'http://www.xiejiaxin.com/?post=159'
p159
aS'http://www.xiejiaxin.com/?post=160'
p160
aS'http://www.xiejiaxin.com/?post=161'
p161
aS'http://www.xiejiaxin.com/?post=162'
p162
aS'http://www.xiejiaxin.com/?post=163'
p163
aS'http://www.xiejiaxin.com/?post=164'
p164
aS'http://www.xiejiaxin.com/?post=165'
p165
aS'http://www.xiejiaxin.com/?post=166'
p166
aS'http://www.xiejiaxin.com/?post=167'
p167
aS'http://www.xiejiaxin.com/?post=168'
p168
aS'http://www.xiejiaxin.com/?post=169'
p169
aS'http://www.xiejiaxin.com/?post=170'
p170
aS'http://www.xiejiaxin.com/?post=171'
p171
aS'http://www.xiejiaxin.com/?post=172'
p172
aS'http://www.xiejiaxin.com/?post=173'
p173
aS'http://www.xiejiaxin.com/?post=174'
p174
aS'http://www.xiejiaxin.com/?post=175'
p175
aS'http://www.xiejiaxin.com/?post=176'
p176
aS'http://www.xiejiaxin.com/?post=177'
p177
aS'http://www.xiejiaxin.com/?post=178'
p178
aS'http://www.xiejiaxin.com/?post=179'
p179
aS'http://www.xiejiaxin.com/?post=180'
p180
aS'http://www.xiejiaxin.com/?post=181'
p181
aS'http://www.xiejiaxin.com/?post=182'
p182
aS'http://www.xiejiaxin.com/?post=183'
p183
aS'http://www.xiejiaxin.com/?post=184'
p184
aS'http://www.xiejiaxin.com/?post=185'
p185
aS'http://www.xiejiaxin.com/?post=186'
p186
aS'http://www.xiejiaxin.com/?post=187'
p187
aS'http://www.xiejiaxin.com/?post=188'
p188
aS'http://www.xiejiaxin.com/?post=189'
p189
aS'http://www.xiejiaxin.com/?post=190'
p190
aS'http://www.xiejiaxin.com/?post=191'
p191
aS'http://www.xiejiaxin.com/?post=192'
p192
aS'http://www.xiejiaxin.com/?post=193'
p193
aS'http://www.xiejiaxin.com/?post=194'
p194
aS'http://www.xiejiaxin.com/?post=195'
p195
aS'http://www.xiejiaxin.com/?post=196'
p196
aS'http://www.xiejiaxin.com/?post=197'
p197
aS'http://www.xiejiaxin.com/?post=198'
p198
aS'http://www.xiejiaxin.com/?post=199'
p199
aS'http://www.xiejiaxin.com/?post=200'
p200
aS'http://www.xiejiaxin.com/?post=201'
p201
aS'http://www.xiejiaxin.com/?post=202'
p202
aS'http://www.xiejiaxin.com/?post=203'
p203
aS'http://www.xiejiaxin.com/?post=204'
p204
aS'http://www.xiejiaxin.com/?post=205'
p205
aS'http://www.xiejiaxin.com/?post=206'
p206
aS'http://www.xiejiaxin.com/?post=207'
p207
aS'http://www.xiejiaxin.com/?post=208'
p208
aS'http://www.xiejiaxin.com/?post=209'
p209
aS'http://www.xiejiaxin.com/?post=210'
p210
aS'http://www.xiejiaxin.com/?post=211'
p211
aS'http://www.xiejiaxin.com/?post=212'
p212
aS'http://www.xiejiaxin.com/?post=213'
p213
aS'http://www.xiejiaxin.com/?post=214'
p214
aS'http://www.xiejiaxin.com/?post=215'
p215
aS'http://www.xiejiaxin.com/?post=216'
p216
aS'http://www.xiejiaxin.com/?post=217'
p217
aS'http://www.xiejiaxin.com/?post=218'
p218
aS'http://www.xiejiaxin.com/?post=219'
p219
aS'http://www.xiejiaxin.com/?post=220'
p220
aS'http://www.xiejiaxin.com/?post=221'
p221
aS'http://www.xiejiaxin.com/?post=222'
p222
aS'http://www.xiejiaxin.com/?post=223'
p223
aS'http://www.xiejiaxin.com/?post=224'
p224
aS'http://www.xiejiaxin.com/?post=225'
p225
aS'http://www.xiejiaxin.com/?post=226'
p226
aS'http://www.xiejiaxin.com/?post=227'
p227
aS'http://www.xiejiaxin.com/?post=228'
p228
aS'http://www.xiejiaxin.com/?post=229'
p229
aS'http://www.xiejiaxin.com/?post=230'
p230
aS'http://www.xiejiaxin.com/?post=231'
p231
aS'http://www.xiejiaxin.com/?post=232'
p232
aS'http://www.xiejiaxin.com/?post=233'
p233
aS'http://www.xiejiaxin.com/?post=234'
p234
aS'http://www.xiejiaxin.com/?post=235'
p235
aS'http://www.xiejiaxin.com/?post=236'
p236
aS'http://www.xiejiaxin.com/?post=237'
p237
aS'http://www.xiejiaxin.com/?post=238'
p238
aS'http://www.xiejiaxin.com/?post=239'
p239
aS'http://www.xiejiaxin.com/?post=240'
p240
aS'http://www.xiejiaxin.com/?post=241'
p241
aS'http://www.xiejiaxin.com/?post=242'
p242
aS'http://www.xiejiaxin.com/?post=243'
p243
aS'http://www.xiejiaxin.com/?post=244'
p244
aS'http://www.xiejiaxin.com/?post=245'
p245
aS'http://www.xiejiaxin.com/?post=246'
p246
aS'http://www.xiejiaxin.com/?post=247'
p247
aS'http://www.xiejiaxin.com/?post=248'
p248
aS'http://www.xiejiaxin.com/?post=249'
p249
aS'http://www.xiejiaxin.com/?post=250'
p250
aS'http://www.xiejiaxin.com/?post=251'
p251
aS'http://www.xiejiaxin.com/?post=252'
p252
aS'http://www.xiejiaxin.com/?post=253'
p253
aS'http://www.xiejiaxin.com/?post=254'
p254
aS'http://www.xiejiaxin.com/?post=255'
p255
aS'http://www.xiejiaxin.com/?post=256'
p256
aS'http://www.xiejiaxin.com/?post=257'
p257
aS'http://www.xiejiaxin.com/?post=258'
p258
aS'http://www.xiejiaxin.com/?post=259'
p259
aS'http://www.xiejiaxin.com/?post=260'
p260
aS'http://www.xiejiaxin.com/?post=261'
p261
aS'http://www.xiejiaxin.com/?post=262'
p262
aS'http://www.xiejiaxin.com/?post=263'
p263
aS'http://www.xiejiaxin.com/?post=264'
p264
aS'http://www.xiejiaxin.com/?post=265'
p265
aS'http://www.xiejiaxin.com/?post=266'
p266
aS'http://www.xiejiaxin.com/?post=267'
p267
aS'http://www.xiejiaxin.com/?post=268'
p268
aS'http://www.xiejiaxin.com/?post=269'
p269
aS'http://www.xiejiaxin.com/?post=270'
p270
aS'http://www.xiejiaxin.com/?post=271'
p271
aS'http://www.xiejiaxin.com/?post=272'
p272
aS'http://www.xiejiaxin.com/?post=273'
p273
aS'http://www.xiejiaxin.com/?post=274'
p274
aS'http://www.xiejiaxin.com/?post=275'
p275
aS'http://www.xiejiaxin.com/?post=276'
p276
aS'http://www.xiejiaxin.com/?post=277'
p277
aS'http://www.xiejiaxin.com/?post=278'
p278
aS'http://www.xiejiaxin.com/?post=279'
p279
aS'http://www.xiejiaxin.com/?post=280'
p280
aS'http://www.xiejiaxin.com/?post=281'
p281
aS'http://www.xiejiaxin.com/?post=282'
p282
aS'http://www.xiejiaxin.com/?post=283'
p283
aS'http://www.xiejiaxin.com/?post=284'
p284
aS'http://www.xiejiaxin.com/?post=285'
p285
aS'http://www.xiejiaxin.com/?post=286'
p286
aS'http://www.xiejiaxin.com/?post=287'
p287
aS'http://www.xiejiaxin.com/?post=288'
p288
aS'http://www.xiejiaxin.com/?post=289'
p289
aS'http://www.xiejiaxin.com/?post=290'
p290
aS'http://www.xiejiaxin.com/?post=291'
p291
aS'http://www.xiejiaxin.com/?post=292'
p292
aS'http://www.xiejiaxin.com/?post=293'
p293
aS'http://www.xiejiaxin.com/?post=294'
p294
aS'http://www.xiejiaxin.com/?post=295'
p295
aS'http://www.xiejiaxin.com/?post=296'
p296
aS'http://www.xiejiaxin.com/?post=297'
p297
aS'http://www.xiejiaxin.com/?post=298'
p298
aS'http://www.xiejiaxin.com/?post=299'
p299
aS'http://www.xiejiaxin.com/?post=300'
p300
aS'http://www.xiejiaxin.com/?post=301'
p301
aS'http://www.xiejiaxin.com/?post=302'
p302
aS'http://www.xiejiaxin.com/?post=303'
p303
aS'http://www.xiejiaxin.com/?post=304'
p304
aS'http://www.xiejiaxin.com/?post=305'
p305
aS'http://www.xiejiaxin.com/?post=306'
p306
aS'http://www.xiejiaxin.com/?post=307'
p307
aS'http://www.xiejiaxin.com/?post=308'
p308
aS'http://www.xiejiaxin.com/?post=309'
p309
aS'http://www.xiejiaxin.com/?post=310'
p310
aS'http://www.xiejiaxin.com/?post=311'
p311
aS'http://www.xiejiaxin.com/?post=312'
p312
aS'http://www.xiejiaxin.com/?post=313'
p313
aS'http://www.xiejiaxin.com/?post=314'
p314
aS'http://www.xiejiaxin.com/?post=315'
p315
aS'http://www.xiejiaxin.com/?post=316'
p316
aS'http://www.xiejiaxin.com/?post=317'
p317
aS'http://www.xiejiaxin.com/?post=318'
p318
aS'http://www.xiejiaxin.com/?post=319'
p319
aS'http://www.xiejiaxin.com/?post=320'
p320
aS'http://www.xiejiaxin.com/?post=321'
p321
aS'http://www.xiejiaxin.com/?post=322'
p322
aS'http://www.xiejiaxin.com/?post=323'
p323
aS'http://www.xiejiaxin.com/?post=324'
p324
aS'http://www.xiejiaxin.com/?post=325'
p325
aS'http://www.xiejiaxin.com/?post=326'
p326
aS'http://www.xiejiaxin.com/?post=327'
p327
aS'http://www.xiejiaxin.com/?post=328'
p328
aS'http://www.xiejiaxin.com/?post=329'
p329
aS'http://www.xiejiaxin.com/?post=330'
p330
aS'http://www.xiejiaxin.com/?post=331'
p331
aS'http://www.xiejiaxin.com/?post=332'
p332
aS'http://www.xiejiaxin.com/?post=333'
p333
aS'http://www.xiejiaxin.com/?post=334'
p334
aS'http://www.xiejiaxin.com/?post=335'
p335
aS'http://www.xiejiaxin.com/?post=336'
p336
aS'http://www.xiejiaxin.com/?post=337'
p337
aS'http://www.xiejiaxin.com/?post=338'
p338
aS'http://www.xiejiaxin.com/?post=339'
p339
aS'http://www.xiejiaxin.com/?post=340'
p340
aS'http://www.xiejiaxin.com/?post=341'
p341
aS'http://www.xiejiaxin.com/?post=342'
p342
aS'http://www.xiejiaxin.com/?post=343'
p343
aS'http://www.xiejiaxin.com/?post=344'
p344
aS'http://www.xiejiaxin.com/?post=345'
p345
aS'http://www.xiejiaxin.com/?post=346'
p346
aS'http://www.xiejiaxin.com/?post=347'
p347
aS'http://www.xiejiaxin.com/?post=348'
p348
aS'http://www.xiejiaxin.com/?post=349'
p349
aS'http://www.xiejiaxin.com/?post=350'
p350
aS'http://www.xiejiaxin.com/?post=351'
p351
aS'http://www.xiejiaxin.com/?post=352'
p352
aS'http://www.xiejiaxin.com/?post=353'
p353
aS'http://www.xiejiaxin.com/?post=354'
p354
aS'http://www.xiejiaxin.com/?post=355'
p355
aS'http://www.xiejiaxin.com/?post=356'
p356
aS'http://www.xiejiaxin.com/?post=357'
p357
aS'http://www.xiejiaxin.com/?post=358'
p358
aS'http://www.xiejiaxin.com/?post=359'
p359
aS'http://www.xiejiaxin.com/?post=360'
p360
aS'http://www.xiejiaxin.com/?post=361'
p361
aS'http://www.xiejiaxin.com/?post=362'
p362
aS'http://www.xiejiaxin.com/?post=363'
p363
aS'http://www.xiejiaxin.com/?post=364'
p364
aS'http://www.xiejiaxin.com/?post=365'
p365
aS'http://www.xiejiaxin.com/?post=366'
p366
aS'http://www.xiejiaxin.com/?post=367'
p367
aS'http://www.xiejiaxin.com/?post=368'
p368
aS'http://www.xiejiaxin.com/?post=369'
p369
aS'http://www.xiejiaxin.com/?post=370'
p370
aS'http://www.xiejiaxin.com/?post=371'
p371
aS'http://www.xiejiaxin.com/?post=372'
p372
aS'http://www.xiejiaxin.com/?post=373'
p373
aS'http://www.xiejiaxin.com/?post=374'
p374
aS'http://www.xiejiaxin.com/?post=375'
p375
aS'http://www.xiejiaxin.com/?post=376'
p376
aS'http://www.xiejiaxin.com/?post=377'
p377
aS'http://www.xiejiaxin.com/?post=378'
p378
aS'http://www.xiejiaxin.com/?post=379'
p379
aS'http://www.xiejiaxin.com/?post=380'
p380
aS'http://www.xiejiaxin.com/?post=381'
p381
aS'http://www.xiejiaxin.com/?post=382'
p382
aS'http://www.xiejiaxin.com/?post=383'
p383
aS'http://www.xiejiaxin.com/?post=384'
p384
aS'http://www.xiejiaxin.com/?post=385'
p385
aS'http://www.xiejiaxin.com/?post=386'
p386
aS'http://www.xiejiaxin.com/?post=387'
p387
aS'http://www.xiejiaxin.com/?post=388'
p388
aS'http://www.xiejiaxin.com/?post=389'
p389
aS'http://www.xiejiaxin.com/?post=390'
p390
aS'http://www.xiejiaxin.com/?post=391'
p391
aS'http://www.xiejiaxin.com/?post=392'
p392
aS'http://www.xiejiaxin.com/?post=393'
p393
aS'http://www.xiejiaxin.com/?post=394'
p394
aS'http://www.xiejiaxin.com/?post=395'
p395
aS'http://www.xiejiaxin.com/?post=396'
p396
aS'http://www.xiejiaxin.com/?post=397'
p397
aS'http://www.xiejiaxin.com/?post=398'
p398
aS'http://www.xiejiaxin.com/?post=399'
p399
aS'http://www.xiejiaxin.com/?post=400'
p400
aS'http://www.xiejiaxin.com/?post=401'
p401
aS'http://www.xiejiaxin.com/?post=402'
p402
aS'http://www.xiejiaxin.com/?post=403'
p403
aS'http://www.365essay.com/?post=2'
p404
aS'http://www.365essay.com/?post=3'
p405
aS'http://www.365essay.com/?post=4'
p406
aS'http://www.365essay.com/?post=5'
p407
aS'http://www.365essay.com/?post=6'
p408
aS'http://www.365essay.com/?post=7'
p409
aS'http://www.365essay.com/?post=8'
p410
aS'http://www.365essay.com/?post=9'
p411
aS'http://www.365essay.com/?post=10'
p412
aS'http://www.365essay.com/?post=11'
p413
aS'http://www.365essay.com/?post=12'
p414
aS'http://www.365essay.com/?post=13'
p415
aS'http://www.365essay.com/?post=14'
p416
aS'http://www.365essay.com/?post=15'
p417
aS'http://www.365essay.com/?post=16'
p418
aS'http://www.365essay.com/?post=17'
p419
aS'http://www.365essay.com/?post=18'
p420
aS'http://www.365essay.com/?post=19'
p421
aS'http://www.365essay.com/?post=20'
p422
aS'http://www.365essay.com/?post=21'
p423
aS'http://www.365essay.com/?post=22'
p424
aS'http://www.365essay.com/?post=23'
p425
aS'http://www.365essay.com/?post=24'
p426
aS'http://www.365essay.com/?post=25'
p427
aS'http://www.365essay.com/?post=26'
p428
aS'http://www.365essay.com/?post=27'
p429
aS'http://www.365essay.com/?post=28'
p430
aS'http://www.365essay.com/?post=29'
p431
aS'http://www.365essay.com/?post=30'
p432
aS'http://www.365essay.com/?post=31'
p433
aS'http://www.365essay.com/?post=32'
p434
aS'http://www.365essay.com/?post=33'
p435
aS'http://www.365essay.com/?post=34'
p436
aS'http://www.365essay.com/?post=35'
p437
aS'http://www.365essay.com/?post=36'
p438
aS'http://www.365essay.com/?post=37'
p439
aS'http://www.365essay.com/?post=38'
p440
aS'http://www.365essay.com/?post=39'
p441
aS'http://www.365essay.com/?post=40'
p442
aS'http://www.365essay.com/?post=41'
p443
aS'http://www.365essay.com/?post=42'
p444
aS'http://www.365essay.com/?post=43'
p445
aS'http://www.365essay.com/?post=44'
p446
aS'http://www.365essay.com/?post=45'
p447
aS'http://www.365essay.com/?post=46'
p448
aS'http://www.365essay.com/?post=47'
p449
aS'http://www.365essay.com/?post=48'
p450
aS'http://www.365essay.com/?post=49'
p451
aS'http://www.365essay.com/?post=50'
p452
aS'http://www.365essay.com/?post=51'
p453
aS'http://www.365essay.com/?post=52'
p454
aS'http://www.365essay.com/?post=53'
p455
aS'http://www.365essay.com/?post=54'
p456
aS'http://www.365essay.com/?post=55'
p457
aS'http://www.365essay.com/?post=56'
p458
aS'http://www.365essay.com/?post=57'
p459
aS'http://www.365essay.com/?post=58'
p460
aS'http://www.365essay.com/?post=59'
p461
aS'http://www.365essay.com/?post=60'
p462
aS'http://www.365essay.com/?post=61'
p463
aS'http://www.365essay.com/?post=62'
p464
aS'http://www.365essay.com/?post=63'
p465
aS'http://www.365essay.com/?post=64'
p466
aS'http://www.365essay.com/?post=65'
p467
aS'http://www.365essay.com/?post=66'
p468
aS'http://www.365essay.com/?post=67'
p469
aS'http://www.365essay.com/?post=68'
p470
aS'http://www.365essay.com/?post=69'
p471
aS'http://www.365essay.com/?post=70'
p472
aS'http://www.365essay.com/?post=71'
p473
aS'http://www.365essay.com/?post=72'
p474
aS'http://www.365essay.com/?post=73'
p475
aS'http://www.365essay.com/?post=74'
p476
aS'http://www.365essay.com/?post=75'
p477
aS'http://www.365essay.com/?post=76'
p478
aS'http://www.365essay.com/?post=77'
p479
aS'http://www.365essay.com/?post=78'
p480
aS'http://www.365essay.com/?post=79'
p481
aS'http://www.365essay.com/?post=80'
p482
aS'http://www.365essay.com/?post=81'
p483
aS'http://www.365essay.com/?post=82'
p484
aS'http://www.365essay.com/?post=83'
p485
aS'http://www.365essay.com/?post=84'
p486
aS'http://www.365essay.com/?post=85'
p487
aS'http://www.365essay.com/?post=86'
p488
aS'http://www.365essay.com/?post=87'
p489
aS'http://www.365essay.com/?post=88'
p490
aS'http://www.365essay.com/?post=89'
p491
aS'http://www.365essay.com/?post=90'
p492
aS'http://www.365essay.com/?post=91'
p493
aS'http://www.365essay.com/?post=92'
p494
aS'http://www.365essay.com/?post=93'
p495
aS'http://www.365essay.com/?post=94'
p496
aS'http://www.365essay.com/?post=95'
p497
aS'http://www.365essay.com/?post=96'
p498
aS'http://www.365essay.com/?post=97'
p499
aS'http://www.365essay.com/?post=98'
p500
aS'http://www.365essay.com/?post=99'
p501
aS'http://www.365essay.com/?post=100'
p502
aS'http://www.365essay.com/?post=101'
p503
aS'http://www.365essay.com/?post=102'
p504
aS'http://www.365essay.com/?post=103'
p505
aS'http://www.365essay.com/?post=104'
p506
aS'http://www.365essay.com/?post=105'
p507
aS'http://www.365essay.com/?post=106'
p508
aS'http://www.365essay.com/?post=107'
p509
aS'http://www.365essay.com/?post=108'
p510
aS'http://www.365essay.com/?post=109'
p511
aS'http://www.365essay.com/?post=110'
p512
aS'http://www.365essay.com/?post=111'
p513
aS'http://www.365essay.com/?post=112'
p514
aS'http://www.365essay.com/?post=113'
p515
aS'http://www.365essay.com/?post=114'
p516
aS'http://www.365essay.com/?post=115'
p517
aS'http://www.365essay.com/?post=116'
p518
aS'http://www.365essay.com/?post=117'
p519
aS'http://www.365essay.com/?post=118'
p520
aS'http://www.365essay.com/?post=119'
p521
aS'http://www.365essay.com/?post=120'
p522
aS'http://www.365essay.com/?post=121'
p523
aS'http://www.365essay.com/?post=122'
p524
aS'http://www.365essay.com/?post=123'
p525
aS'http://www.365essay.com/?post=124'
p526
aS'http://www.365essay.com/?post=125'
p527
aS'http://www.365essay.com/?post=126'
p528
aS'http://www.365essay.com/?post=127'
p529
aS'http://www.365essay.com/?post=128'
p530
aS'http://www.365essay.com/?post=129'
p531
aS'http://www.365essay.com/?post=130'
p532
aS'http://www.365essay.com/?post=131'
p533
aS'http://www.365essay.com/?post=132'
p534
aS'http://www.365essay.com/?post=133'
p535
aS'http://www.365essay.com/?post=134'
p536
aS'http://www.365essay.com/?post=135'
p537
aS'http://www.365essay.com/?post=136'
p538
aS'http://www.365essay.com/?post=137'
p539
aS'http://www.365essay.com/?post=138'
p540
aS'http://www.365essay.com/?post=139'
p541
aS'http://www.365essay.com/?post=140'
p542
aS'http://www.365essay.com/?post=141'
p543
aS'http://www.365essay.com/?post=142'
p544
aS'http://www.365essay.com/?post=143'
p545
aS'http://www.365essay.com/?post=144'
p546
aS'http://www.365essay.com/?post=145'
p547
aS'http://www.365essay.com/?post=146'
p548
aS'http://www.365essay.com/?post=147'
p549
aS'http://www.365essay.com/?post=148'
p550
aS'http://www.365essay.com/?post=149'
p551
aS'http://www.365essay.com/?post=150'
p552
aS'http://www.365essay.com/?post=151'
p553
aS'http://www.365essay.com/?post=152'
p554
aS'http://www.365essay.com/?post=153'
p555
aS'http://www.365essay.com/?post=154'
p556
aS'http://www.365essay.com/?post=155'
p557
aS'http://www.365essay.com/?post=156'
p558
aS'http://www.365essay.com/?post=157'
p559
aS'http://www.365essay.com/?post=158'
p560
aS'http://www.365essay.com/?post=159'
p561
aS'http://www.365essay.com/?post=160'
p562
aS'http://www.365essay.com/?post=161'
p563
aS'http://www.365essay.com/?post=162'
p564
aS'http://www.365essay.com/?post=163'
p565
aS'http://www.365essay.com/?post=164'
p566
aS'http://www.365essay.com/?post=165'
p567
aS'http://www.365essay.com/?post=166'
p568
aS'http://www.365essay.com/?post=167'
p569
aS'http://www.365essay.com/?post=168'
p570
aS'http://www.365essay.com/?post=169'
p571
aS'http://www.365essay.com/?post=170'
p572
aS'http://www.365essay.com/?post=171'
p573
aS'http://www.365essay.com/?post=172'
p574
aS'http://www.365essay.com/?post=173'
p575
aS'http://www.365essay.com/?post=174'
p576
aS'http://www.365essay.com/?post=175'
p577
aS'http://www.365essay.com/?post=176'
p578
aS'http://www.365essay.com/?post=177'
p579
aS'http://www.365essay.com/?post=178'
p580
aS'http://www.365essay.com/?post=179'
p581
aS'http://www.365essay.com/?post=180'
p582
aS'http://www.365essay.com/?post=181'
p583
aS'http://www.365essay.com/?post=182'
p584
aS'http://www.365essay.com/?post=183'
p585
aS'http://www.365essay.com/?post=184'
p586
aS'http://www.365essay.com/?post=185'
p587
aS'http://www.365essay.com/?post=186'
p588
aS'http://www.365essay.com/?post=187'
p589
aS'http://www.365essay.com/?post=188'
p590
aS'http://www.365essay.com/?post=189'
p591
aS'http://www.365essay.com/?post=190'
p592
aS'http://www.365essay.com/?post=191'
p593
aS'http://www.365essay.com/?post=192'
p594
aS'http://www.365essay.com/?post=193'
p595
aS'http://www.365essay.com/?post=194'
p596
aS'http://www.365essay.com/?post=195'
p597
aS'http://www.365essay.com/?post=196'
p598
aS'http://www.365essay.com/?post=197'
p599
aS'http://www.365essay.com/?post=198'
p600
aS'http://www.365essay.com/?post=199'
p601
aS'http://www.365essay.com/?post=200'
p602
aS'http://www.365essay.com/?post=201'
p603
aS'http://www.365essay.com/?post=202'
p604
aS'http://www.365essay.com/?post=203'
p605
aS'http://www.365essay.com/?post=204'
p606
aS'http://www.365essay.com/?post=205'
p607
aS'http://www.365essay.com/?post=206'
p608
aS'http://www.365essay.com/?post=207'
p609
aS'http://www.365essay.com/?post=208'
p610
aS'http://www.365essay.com/?post=209'
p611
aS'http://www.365essay.com/?post=210'
p612
aS'http://www.365essay.com/?post=211'
p613
aS'http://www.365essay.com/?post=212'
p614
aS'http://www.365essay.com/?post=213'
p615
aS'http://www.365essay.com/?post=214'
p616
aS'http://www.365essay.com/?post=215'
p617
aS'http://www.365essay.com/?post=216'
p618
aS'http://www.365essay.com/?post=217'
p619
aS'http://www.365essay.com/?post=218'
p620
aS'http://www.365essay.com/?post=219'
p621
aS'http://www.365essay.com/?post=220'
p622
aS'http://www.365essay.com/?post=221'
p623
aS'http://www.365essay.com/?post=222'
p624
aS'http://www.365essay.com/?post=223'
p625
aS'http://www.365essay.com/?post=224'
p626
aS'http://www.365essay.com/?post=225'
p627
aS'http://www.365essay.com/?post=226'
p628
aS'http://www.365essay.com/?post=227'
p629
aS'http://www.365essay.com/?post=228'
p630
aS'http://www.365essay.com/?post=229'
p631
aS'http://www.365essay.com/?post=230'
p632
aS'http://www.365essay.com/?post=231'
p633
aS'http://www.365essay.com/?post=232'
p634
aS'http://www.365essay.com/?post=233'
p635
aS'http://www.365essay.com/?post=234'
p636
aS'http://www.365essay.com/?post=235'
p637
aS'http://www.365essay.com/?post=236'
p638
aS'http://www.365essay.com/?post=237'
p639
aS'http://www.365essay.com/?post=238'
p640
aS'http://www.365essay.com/?post=239'
p641
aS'http://www.365essay.com/?post=240'
p642
aS'http://www.365essay.com/?post=241'
p643
aS'http://www.365essay.com/?post=242'
p644
aS'http://www.365essay.com/?post=243'
p645
aS'http://www.365essay.com/?post=244'
p646
aS'http://www.365essay.com/?post=245'
p647
aS'http://www.365essay.com/?post=246'
p648
aS'http://www.365essay.com/?post=247'
p649
aS'http://www.365essay.com/?post=248'
p650
aS'http://www.365essay.com/?post=249'
p651
aS'http://www.365essay.com/?post=250'
p652
aS'http://www.365essay.com/?post=251'
p653
aS'http://www.365essay.com/?post=252'
p654
aS'http://www.365essay.com/?post=253'
p655
aS'http://www.365essay.com/?post=254'
p656
aS'http://www.365essay.com/?post=255'
p657
aS'http://www.365essay.com/?post=256'
p658
aS'http://www.365essay.com/?post=257'
p659
aS'http://www.365essay.com/?post=258'
p660
aS'http://www.365essay.com/?post=259'
p661
aS'http://www.365essay.com/?post=260'
p662
aS'http://www.365essay.com/?post=261'
p663
aS'http://www.365essay.com/?post=262'
p664
aS'http://www.365essay.com/?post=263'
p665
aS'http://www.365essay.com/?post=264'
p666
aS'http://www.365essay.com/?post=265'
p667
aS'http://www.365essay.com/?post=266'
p668
aS'http://www.365essay.com/?post=267'
p669
aS'http://www.365essay.com/?post=268'
p670
aS'http://www.365essay.com/?post=269'
p671
aS'http://www.365essay.com/?post=270'
p672
aS'http://www.365essay.com/?post=271'
p673
aS'http://www.365essay.com/?post=272'
p674
aS'http://www.365essay.com/?post=273'
p675
aS'http://www.365essay.com/?post=274'
p676
aS'http://www.365essay.com/?post=275'
p677
aS'http://www.365essay.com/?post=276'
p678
aS'http://www.365essay.com/?post=277'
p679
aS'http://www.365essay.com/?post=278'
p680
aS'http://www.365essay.com/?post=279'
p681
aS'http://www.365essay.com/?post=280'
p682
aS'http://www.365essay.com/?post=281'
p683
aS'http://www.365essay.com/?post=282'
p684
aS'http://www.365essay.com/?post=283'
p685
aS'http://www.365essay.com/?post=284'
p686
aS'http://www.365essay.com/?post=285'
p687
aS'http://www.365essay.com/?post=286'
p688
aS'http://www.365essay.com/?post=287'
p689
aS'http://www.365essay.com/?post=288'
p690
aS'http://www.365essay.com/?post=289'
p691
aS'http://www.365essay.com/?post=290'
p692
aS'http://www.365essay.com/?post=291'
p693
aS'http://www.365essay.com/?post=292'
p694
aS'http://www.365essay.com/?post=293'
p695
aS'http://www.365essay.com/?post=294'
p696
aS'http://www.365essay.com/?post=295'
p697
aS'http://www.365essay.com/?post=296'
p698
aS'http://www.365essay.com/?post=297'
p699
aS'http://www.365essay.com/?post=298'
p700
aS'http://www.365essay.com/?post=299'
p701
aS'http://www.365essay.com/?post=300'
p702
aS'http://www.365essay.com/?post=301'
p703
aS'http://www.365essay.com/?post=302'
p704
aS'http://www.365essay.com/?post=303'
p705
aS'http://www.365essay.com/?post=304'
p706
aS'http://www.365essay.com/?post=305'
p707
aS'http://www.365essay.com/?post=306'
p708
aS'http://www.365essay.com/?post=307'
p709
aS'http://www.365essay.com/?post=308'
p710
aS'http://www.365essay.com/?post=309'
p711
aS'http://www.365essay.com/?post=310'
p712
aS'http://www.365essay.com/?post=311'
p713
aS'http://www.365essay.com/?post=312'
p714
aS'http://www.365essay.com/?post=313'
p715
aS'http://www.365essay.com/?post=314'
p716
aS'http://www.365essay.com/?post=315'
p717
aS'http://www.365essay.com/?post=316'
p718
aS'http://www.365essay.com/?post=317'
p719
aS'http://www.365essay.com/?post=318'
p720
aS'http://www.365essay.com/?post=319'
p721
aS'http://www.365essay.com/?post=320'
p722
aS'http://www.365essay.com/?post=321'
p723
aS'http://www.365essay.com/?post=322'
p724
aS'http://www.365essay.com/?post=323'
p725
aS'http://www.365essay.com/?post=324'
p726
aS'http://www.365essay.com/?post=325'
p727
aS'http://www.365essay.com/?post=326'
p728
aS'http://www.365essay.com/?post=327'
p729
aS'http://www.365essay.com/?post=328'
p730
aS'http://www.365essay.com/?post=329'
p731
aS'http://www.365essay.com/?post=330'
p732
aS'http://www.365essay.com/?post=331'
p733
aS'http://www.365essay.com/?post=332'
p734
aS'http://www.365essay.com/?post=333'
p735
aS'http://www.365essay.com/?post=334'
p736
aS'http://www.365essay.com/?post=335'
p737
aS'http://www.365essay.com/?post=336'
p738
aS'http://www.365essay.com/?post=337'
p739
aS'http://www.365essay.com/?post=338'
p740
aS'http://www.365essay.com/?post=339'
p741
aS'http://www.365essay.com/?post=340'
p742
aS'http://www.365essay.com/?post=341'
p743
aS'http://www.365essay.com/?post=342'
p744
aS'http://www.365essay.com/?post=343'
p745
aS'http://www.365essay.com/?post=344'
p746
aS'http://www.365essay.com/?post=345'
p747
aS'http://www.365essay.com/?post=346'
p748
aS'http://www.365essay.com/?post=347'
p749
aS'http://www.365essay.com/?post=348'
p750
aS'http://www.365essay.com/?post=349'
p751
aS'http://www.365essay.com/?post=350'
p752
aS'http://www.365essay.com/?post=351'
p753
aS'http://www.365essay.com/?post=352'
p754
aS'http://www.365essay.com/?post=353'
p755
aS'http://www.365essay.com/?post=354'
p756
aS'http://www.365essay.com/?post=355'
p757
aS'http://www.365essay.com/?post=356'
p758
aS'http://www.365essay.com/?post=357'
p759
aS'http://www.365essay.com/?post=358'
p760
aS'http://www.365essay.com/?post=359'
p761
aS'http://www.365essay.com/?post=360'
p762
aS'http://www.365essay.com/?post=361'
p763
aS'http://www.365essay.com/?post=362'
p764
aS'http://www.365essay.com/?post=363'
p765
aS'http://www.365essay.com/?post=364'
p766
aS'http://www.365essay.com/?post=365'
p767
aS'http://www.365essay.com/?post=366'
p768
aS'http://www.365essay.com/?post=367'
p769
aS'http://www.365essay.com/?post=368'
p770
aS'http://www.365essay.com/?post=369'
p771
aS'http://www.365essay.com/?post=370'
p772
aS'http://www.365essay.com/?post=371'
p773
aS'http://www.365essay.com/?post=372'
p774
aS'http://www.365essay.com/?post=373'
p775
aS'http://www.365essay.com/?post=374'
p776
aS'http://www.365essay.com/?post=375'
p777
aS'http://www.365essay.com/?post=376'
p778
aS'http://www.365essay.com/?post=377'
p779
aS'http://www.365essay.com/?post=378'
p780
aS'http://www.365essay.com/?post=379'
p781
aS'http://www.365essay.com/?post=380'
p782
aS'http://www.365essay.com/?post=381'
p783
aS'http://www.365essay.com/?post=382'
p784
aS'http://www.365essay.com/?post=383'
p785
aS'http://www.365essay.com/?post=384'
p786
aS'http://www.365essay.com/?post=385'
p787
aS'http://www.365essay.com/?post=386'
p788
aS'http://www.365essay.com/?post=387'
p789
aS'http://www.365essay.com/?post=388'
p790
aS'http://www.365essay.com/?post=389'
p791
aS'http://www.365essay.com/?post=390'
p792
aS'http://www.365essay.com/?post=391'
p793
aS'http://www.365essay.com/?post=392'
p794
aS'http://www.365essay.com/?post=393'
p795
aS'http://www.365essay.com/?post=394'
p796
aS'http://www.365essay.com/?post=395'
p797
aS'http://www.365essay.com/?post=396'
p798
aS'http://www.365essay.com/?post=397'
p799
aS'http://www.365essay.com/?post=398'
p800
aS'http://www.365essay.com/?post=399'
p801
aS'http://www.365essay.com/?post=400'
p802
aS'http://www.365essay.com/?post=401'
p803
aS'http://www.365essay.com/?post=402'
p804
aS'http://www.365essay.com/?post=403'
p805
aS'http://www.365essay.com/?post=404'
p806
aS'http://www.365essay.com/?post=405'
p807
aS'http://www.365essay.com/?post=406'
p808
aS'http://www.365essay.com/?post=407'
p809
aS'http://www.365essay.com/?post=408'
p810
aS'http://www.365essay.com/?post=409'
p811
aS'http://www.365essay.com/?post=410'
p812
aS'http://www.365essay.com/?post=411'
p813
aS'http://www.365essay.com/?post=412'
p814
aS'http://www.365essay.com/?post=413'
p815
aS'http://www.365essay.com/?post=414'
p816
aS'http://www.365essay.com/?post=415'
p817
aS'http://www.365essay.com/?post=416'
p818
aS'http://www.365essay.com/?post=417'
p819
aS'http://www.365essay.com/?post=418'
p820
aS'http://www.365essay.com/?post=419'
p821
aS'http://www.365essay.com/?post=420'
p822
aS'http://www.365essay.com/?post=421'
p823
aS'http://www.365essay.com/?post=422'
p824
aS'http://www.365essay.com/?post=423'
p825
aS'http://www.365essay.com/?post=424'
p826
aS'http://www.365essay.com/?post=425'
p827
aS'http://www.365essay.com/?post=426'
p828
aS'http://www.365essay.com/?post=427'
p829
aS'http://www.365essay.com/?post=428'
p830
aS'http://www.365essay.com/?post=429'
p831
aS'http://www.365essay.com/?post=430'
p832
aS'http://www.365essay.com/?post=431'
p833
aS'http://www.365essay.com/?post=432'
p834
aS'http://www.365essay.com/?post=433'
p835
aS'http://www.365essay.com/?post=434'
p836
aS'http://www.365essay.com/?post=435'
p837
aS'http://www.365essay.com/?post=436'
p838
aS'http://www.365essay.com/?post=437'
p839
aS'http://www.365essay.com/?post=438'
p840
aS'http://www.365essay.com/?post=439'
p841
aS'http://www.365essay.com/?post=440'
p842
aS'http://www.365essay.com/?post=441'
p843
aS'http://www.365essay.com/?post=442'
p844
aS'http://www.365essay.com/?post=443'
p845
aS'http://www.365essay.com/?post=444'
p846
aS'http://www.365essay.com/?post=445'
p847
aS'http://www.365essay.com/?post=446'
p848
aS'http://www.365essay.com/?post=447'
p849
aS'http://www.365essay.com/?post=448'
p850
aS'http://www.365essay.com/?post=449'
p851
aS'http://www.365essay.com/?post=450'
p852
aS'http://www.365essay.com/?post=451'
p853
aS'http://www.365essay.com/?post=452'
p854
aS'http://www.365essay.com/?post=453'
p855
aS'http://www.365essay.com/?post=454'
p856
aS'http://www.365essay.com/?post=455'
p857
aS'http://www.365essay.com/?post=456'
p858
aS'http://www.365essay.com/?post=457'
p859
aS'http://www.365essay.com/?post=458'
p860
aS'http://www.365essay.com/?post=459'
p861
aS'http://www.365essay.com/?post=460'
p862
aS'http://www.365essay.com/?post=461'
p863
aS'http://www.365essay.com/?post=462'
p864
aS'http://www.365essay.com/?post=463'
p865
aS'http://www.365essay.com/?post=464'
p866
aS'http://www.365essay.com/?post=465'
p867
aS'http://www.365essay.com/?post=466'
p868
aS'http://www.365essay.com/?post=467'
p869
aS'http://www.365essay.com/?post=468'
p870
aS'http://www.365essay.com/?post=469'
p871
aS'http://www.365essay.com/?post=470'
p872
aS'http://www.365essay.com/?post=471'
p873
aS'http://www.365essay.com/?post=472'
p874
aS'http://www.365essay.com/?post=473'
p875
aS'http://www.365essay.com/?post=474'
p876
aS'http://www.365essay.com/?post=475'
p877
aS'http://www.365essay.com/?post=476'
p878
aS'http://www.365essay.com/?post=477'
p879
aS'http://www.365essay.com/?post=478'
p880
aS'http://www.365essay.com/?post=479'
p881
aS'http://www.365essay.com/?post=480'
p882
aS'http://www.365essay.com/?post=481'
p883
aS'http://www.365essay.com/?post=482'
p884
aS'http://www.365essay.com/?post=483'
p885
aS'http://www.365essay.com/?post=484'
p886
aS'http://www.365essay.com/?post=485'
p887
aS'http://www.365essay.com/?post=486'
p888
aS'http://www.365essay.com/?post=487'
p889
aS'http://www.365essay.com/?post=488'
p890
aS'http://www.365essay.com/?post=489'
p891
aS'http://www.365essay.com/?post=490'
p892
aS'http://www.365essay.com/?post=491'
p893
aS'http://www.365essay.com/?post=492'
p894
aS'http://www.365essay.com/?post=493'
p895
aS'http://www.365essay.com/?post=494'
p896
aS'http://www.365essay.com/?post=495'
p897
aS'http://www.365essay.com/?post=496'
p898
aS'http://www.365essay.com/?post=497'
p899
aS'http://www.365essay.com/?post=498'
p900
aS'http://www.365essay.com/?post=499'
p901
aS'http://www.365essay.com/?post=500'
p902
aS'http://www.365essay.com/?post=501'
p903
aS'http://www.365essay.com/?post=502'
p904
aS'http://www.365essay.com/?post=503'
p905
aS'http://www.365essay.com/?post=504'
p906
aS'http://www.365essay.com/?post=505'
p907
aS'http://www.365essay.com/?post=506'
p908
aS'http://www.365essay.com/?post=507'
p909
aS'http://www.365essay.com/?post=508'
p910
aS'http://www.365essay.com/?post=509'
p911
aS'http://www.365essay.com/?post=510'
p912
aS'http://www.365essay.com/?post=511'
p913
aS'http://www.365essay.com/?post=512'
p914
aS'http://www.365essay.com/?post=513'
p915
aS'http://www.365essay.com/?post=514'
p916
aS'http://www.365essay.com/?post=515'
p917
aS'http://www.365essay.com/?post=516'
p918
aS'http://www.365essay.com/?post=517'
p919
aS'http://www.365essay.com/?post=518'
p920
aS'http://www.365essay.com/?post=519'
p921
aS'http://www.365essay.com/?post=520'
p922
aS'http://www.365essay.com/?post=521'
p923
aS'http://www.365essay.com/?post=522'
p924
aS'http://www.365essay.com/?post=523'
p925
aS'http://www.365essay.com/?post=524'
p926
aS'http://www.365essay.com/?post=525'
p927
aS'http://www.365essay.com/?post=526'
p928
aS'http://www.365essay.com/?post=527'
p929
aS'http://www.365essay.com/?post=528'
p930
aS'http://www.365essay.com/?post=529'
p931
aS'http://www.365essay.com/?post=530'
p932
aS'http://www.365essay.com/?post=531'
p933
aS'http://www.365essay.com/?post=532'
p934
aS'http://www.365essay.com/?post=533'
p935
aS'http://www.365essay.com/?post=534'
p936
aS'http://www.365essay.com/?post=535'
p937
aS'http://www.365essay.com/?post=536'
p938
aS'http://www.365essay.com/?post=537'
p939
aS'http://www.365essay.com/?post=538'
p940
aS'http://www.365essay.com/?post=539'
p941
aS'http://www.365essay.com/?post=540'
p942
aS'http://www.365essay.com/?post=541'
p943
aS'http://www.365essay.com/?post=542'
p944
aS'http://www.365essay.com/?post=543'
p945
aS'http://www.365essay.com/?post=544'
p946
aS'http://www.365essay.com/?post=545'
p947
aS'http://www.365essay.com/?post=546'
p948
aS'http://www.365essay.com/?post=547'
p949
aS'http://www.365essay.com/?post=548'
p950
aS'http://www.365essay.com/?post=549'
p951
aS'http://www.365essay.com/?post=550'
p952
aS'http://www.365essay.com/?post=551'
p953
aS'http://www.365essay.com/?post=552'
p954
aS'http://www.365essay.com/?post=553'
p955
aS'http://www.365essay.com/?post=554'
p956
aS'http://www.365essay.com/?post=555'
p957
aS'http://www.365essay.com/?post=556'
p958
aS'http://www.365essay.com/?post=557'
p959
aS'http://www.365essay.com/?post=558'
p960
aS'http://www.365essay.com/?post=559'
p961
aS'http://www.365essay.com/?post=560'
p962
aS'http://www.365essay.com/?post=561'
p963
aS'http://www.365essay.com/?post=562'
p964
aS'http://www.365essay.com/?post=563'
p965
aS'http://www.365essay.com/?post=564'
p966
aS'http://www.365essay.com/?post=565'
p967
aS'http://www.365essay.com/?post=566'
p968
aS'http://www.365essay.com/?post=567'
p969
aS'http://www.365essay.com/?post=568'
p970
aS'http://www.365essay.com/?post=569'
p971
aS'http://www.365essay.com/?post=570'
p972
aS'http://www.365essay.com/?post=571'
p973
aS'http://www.365essay.com/?post=572'
p974
aS'http://www.365essay.com/?post=573'
p975
aS'http://www.365essay.com/?post=574'
p976
aS'http://www.365essay.com/?post=575'
p977
aS'http://www.365essay.com/?post=576'
p978
aS'http://www.365essay.com/?post=577'
p979
aS'http://www.365essay.com/?post=578'
p980
aS'http://www.365essay.com/?post=579'
p981
aS'http://www.365essay.com/?post=580'
p982
aS'http://www.365essay.com/?post=581'
p983
aS'http://www.365essay.com/?post=582'
p984
aS'http://www.365essay.com/?post=583'
p985
aS'http://www.365essay.com/?post=584'
p986
aS'http://www.365essay.com/?post=585'
p987
aS'http://www.365essay.com/?post=586'
p988
aS'http://www.365essay.com/?post=587'
p989
aS'http://www.365essay.com/?post=588'
p990
aS'http://www.365essay.com/?post=589'
p991
aS'http://www.365essay.com/?post=590'
p992
aS'http://www.365essay.com/?post=591'
p993
aS'http://www.365essay.com/?post=592'
p994
aS'http://www.365essay.com/?post=593'
p995
aS'http://www.365essay.com/?post=594'
p996
aS'http://www.365essay.com/?post=595'
p997
aS'http://www.365essay.com/?post=596'
p998
aS'http://www.365essay.com/?post=597'
p999
aS'http://www.365essay.com/?post=598'
p1000
aS'http://www.365essay.com/?post=599'
p1001
aS'http://www.365essay.com/?post=600'
p1002
aS'http://www.365essay.com/?post=601'
p1003
aS'http://www.365essay.com/?post=602'
p1004
aS'http://www.365essay.com/?post=603'
p1005
aS'http://www.365essay.com/?post=604'
p1006
aS'http://www.365essay.com/?post=605'
p1007
aS'http://www.365essay.com/?post=606'
p1008
aS'http://www.365essay.com/?post=607'
p1009
aS'http://www.365essay.com/?post=608'
p1010
aS'http://www.365essay.com/?post=609'
p1011
aS'http://www.365essay.com/?post=610'
p1012
aS'http://www.365essay.com/?post=611'
p1013
aS'http://www.365essay.com/?post=612'
p1014
aS'http://www.365essay.com/?post=613'
p1015
aS'http://www.365essay.com/?post=614'
p1016
aS'http://www.365essay.com/?post=615'
p1017
aS'http://www.365essay.com/?post=616'
p1018
aS'http://www.365essay.com/?post=617'
p1019
aS'http://www.365essay.com/?post=618'
p1020
aS'http://www.365essay.com/?post=619'
p1021
aS'http://www.365essay.com/?post=620'
p1022
aS'http://www.365essay.com/?post=621'
p1023
aS'http://www.365essay.com/?post=622'
p1024
aS'http://www.365essay.com/?post=623'
p1025
aS'http://www.365essay.com/?post=624'
p1026
aS'http://www.365essay.com/?post=625'
p1027
aS'http://www.365essay.com/?post=626'
p1028
aS'http://www.365essay.com/?post=627'
p1029
aS'http://www.365essay.com/?post=628'
p1030
aS'http://www.365essay.com/?post=629'
p1031
aS'http://www.365essay.com/?post=630'
p1032
aS'http://www.365essay.com/?post=631'
p1033
aS'http://www.365essay.com/?post=632'
p1034
aS'http://www.365essay.com/?post=633'
p1035
aS'http://www.365essay.com/?post=634'
p1036
aS'http://www.365essay.com/?post=635'
p1037
aS'http://www.365essay.com/?post=636'
p1038
aS'http://www.365essay.com/?post=637'
p1039
aS'http://www.365essay.com/?post=638'
p1040
aS'http://www.365essay.com/?post=639'
p1041
aS'http://www.365essay.com/?post=640'
p1042
aS'http://www.365essay.com/?post=641'
p1043
aS'http://www.365essay.com/?post=642'
p1044
aS'http://www.365essay.com/?post=643'
p1045
aS'http://www.365essay.com/?post=644'
p1046
aS'http://www.365essay.com/?post=645'
p1047
aS'http://www.365essay.com/?post=646'
p1048
aS'http://www.365essay.com/?post=647'
p1049
aS'http://www.365essay.com/?post=648'
p1050
aS'http://www.365essay.com/?post=649'
p1051
aS'http://www.365essay.com/?post=650'
p1052
aS'http://www.365essay.com/?post=651'
p1053
aS'http://www.365essay.com/?post=652'
p1054
aS'http://www.365essay.com/?post=653'
p1055
aS'http://www.365essay.com/?post=654'
p1056
aS'http://www.365essay.com/?post=655'
p1057
aS'http://www.365essay.com/?post=656'
p1058
aS'http://www.365essay.com/?post=657'
p1059
aS'http://www.365essay.com/?post=658'
p1060
aS'http://www.365essay.com/?post=659'
p1061
aS'http://www.365essay.com/?post=660'
p1062
aS'http://www.365essay.com/?post=661'
p1063
aS'http://www.365essay.com/?post=662'
p1064
aS'http://www.365essay.com/?post=663'
p1065
aS'http://www.365essay.com/?post=664'
p1066
aS'http://www.365essay.com/?post=665'
p1067
aS'http://www.365essay.com/?post=666'
p1068
aS'http://www.365essay.com/?post=667'
p1069
aS'http://www.365essay.com/?post=668'
p1070
aS'http://www.365essay.com/?post=669'
p1071
aS'http://www.365essay.com/?post=670'
p1072
aS'http://www.365essay.com/?post=671'
p1073
aS'http://www.365essay.com/?post=672'
p1074
aS'http://www.365essay.com/?post=673'
p1075
aS'http://www.365essay.com/?post=674'
p1076
aS'http://www.365essay.com/?post=675'
p1077
aS'http://www.365essay.com/?post=676'
p1078
aS'http://www.365essay.com/?post=677'
p1079
aS'http://www.365essay.com/?post=678'
p1080
aS'http://www.365essay.com/?post=679'
p1081
aS'http://www.365essay.com/?post=680'
p1082
aS'http://www.365essay.com/?post=681'
p1083
aS'http://www.365essay.com/?post=682'
p1084
aS'http://www.365essay.com/?post=683'
p1085
aS'http://www.365essay.com/?post=684'
p1086
aS'http://www.365essay.com/?post=685'
p1087
aS'http://www.365essay.com/?post=686'
p1088
aS'http://www.365essay.com/?post=687'
p1089
aS'http://www.365essay.com/?post=688'
p1090
aS'http://www.365essay.com/?post=689'
p1091
aS'http://www.365essay.com/?post=690'
p1092
aS'http://www.365essay.com/?post=691'
p1093
aS'http://www.365essay.com/?post=692'
p1094
aS'http://www.365essay.com/?post=693'
p1095
aS'http://www.365essay.com/?post=694'
p1096
aS'http://www.365essay.com/?post=695'
p1097
aS'http://www.365essay.com/?post=696'
p1098
aS'http://www.365essay.com/?post=697'
p1099
aS'http://www.365essay.com/?post=698'
p1100
aS'http://www.365essay.com/?post=699'
p1101
aS'http://www.365essay.com/?post=700'
p1102
aS'http://www.365essay.com/?post=701'
p1103
aS'http://www.365essay.com/?post=702'
p1104
aS'http://www.365essay.com/?post=703'
p1105
aS'http://www.365essay.com/?post=704'
p1106
aS'http://www.365essay.com/?post=705'
p1107
aS'http://www.365essay.com/?post=706'
p1108
aS'http://www.365essay.com/?post=707'
p1109
aS'http://www.365essay.com/?post=708'
p1110
aS'http://www.365essay.com/?post=709'
p1111
aS'http://www.365essay.com/?post=710'
p1112
aS'http://www.365essay.com/?post=711'
p1113
aS'http://www.365essay.com/?post=712'
p1114
aS'http://www.365essay.com/?post=713'
p1115
aS'http://www.365essay.com/?post=714'
p1116
aS'http://www.365essay.com/?post=715'
p1117
aS'http://www.365essay.com/?post=716'
p1118
aS'http://www.365essay.com/?post=717'
p1119
aS'http://www.365essay.com/?post=718'
p1120
aS'http://www.365essay.com/?post=719'
p1121
aS'http://www.365essay.com/?post=720'
p1122
aS'http://www.365essay.com/?post=721'
p1123
aS'http://www.365essay.com/?post=722'
p1124
aS'http://www.365essay.com/?post=723'
p1125
aS'http://www.365essay.com/?post=724'
p1126
aS'http://www.365essay.com/?post=725'
p1127
aS'http://www.365essay.com/?post=726'
p1128
aS'http://www.365essay.com/?post=727'
p1129
aS'http://www.365essay.com/?post=728'
p1130
aS'http://www.365essay.com/?post=729'
p1131
aS'http://www.365essay.com/?post=730'
p1132
aS'http://www.365essay.com/?post=731'
p1133
aS'http://www.365essay.com/?post=732'
p1134
aS'http://www.365essay.com/?post=733'
p1135
aS'http://www.365essay.com/?post=734'
p1136
aS'http://www.365essay.com/?post=735'
p1137
aS'http://www.365essay.com/?post=736'
p1138
aS'http://www.365essay.com/?post=737'
p1139
aS'http://www.365essay.com/?post=738'
p1140
aS'http://www.365essay.com/?post=739'
p1141
aS'http://www.365essay.com/?post=740'
p1142
aS'http://www.365essay.com/?post=741'
p1143
aS'http://www.365essay.com/?post=742'
p1144
aS'http://www.365essay.com/?post=743'
p1145
aS'http://www.365essay.com/?post=744'
p1146
aS'http://www.365essay.com/?post=745'
p1147
aS'http://www.365essay.com/?post=746'
p1148
aS'http://www.365essay.com/?post=747'
p1149
aS'http://www.365essay.com/?post=748'
p1150
aS'http://www.365essay.com/?post=749'
p1151
aS'http://www.365essay.com/?post=750'
p1152
aS'http://www.365essay.com/?post=751'
p1153
aS'http://www.365essay.com/?post=752'
p1154
aS'http://www.365essay.com/?post=753'
p1155
aS'http://www.365essay.com/?post=754'
p1156
aS'http://www.365essay.com/?post=755'
p1157
aS'http://www.365essay.com/?post=756'
p1158
aS'http://www.365essay.com/?post=757'
p1159
aS'http://www.365essay.com/?post=758'
p1160
aS'http://www.365essay.com/?post=759'
p1161
aS'http://www.365essay.com/?post=760'
p1162
aS'http://www.365essay.com/?post=761'
p1163
aS'http://www.365essay.com/?post=762'
p1164
aS'http://www.365essay.com/?post=763'
p1165
aS'http://www.365essay.com/?post=764'
p1166
aS'http://www.365essay.com/?post=765'
p1167
aS'http://www.365essay.com/?post=766'
p1168
aS'http://www.365essay.com/?post=767'
p1169
aS'http://www.365essay.com/?post=768'
p1170
aS'http://www.365essay.com/?post=769'
p1171
aS'http://www.365essay.com/?post=770'
p1172
aS'http://www.365essay.com/?post=771'
p1173
aS'http://www.365essay.com/?post=772'
p1174
aS'http://www.365essay.com/?post=773'
p1175
aS'http://www.365essay.com/?post=774'
p1176
aS'http://www.365essay.com/?post=775'
p1177
aS'http://www.365essay.com/?post=776'
p1178
aS'http://www.365essay.com/?post=777'
p1179
aS'http://www.365essay.com/?post=778'
p1180
aS'http://www.365essay.com/?post=779'
p1181
aS'http://www.365essay.com/?post=780'
p1182
aS'http://www.365essay.com/?post=781'
p1183
aS'http://www.365essay.com/?post=782'
p1184
aS'http://www.365essay.com/?post=783'
p1185
aS'http://www.365essay.com/?post=784'
p1186
aS'http://www.365essay.com/?post=785'
p1187
aS'http://www.365essay.com/?post=786'
p1188
aS'http://www.365essay.com/?post=787'
p1189
aS'http://www.365essay.com/?post=788'
p1190
aS'http://www.365essay.com/?post=789'
p1191
aS'http://www.365essay.com/?post=790'
p1192
aS'http://www.365essay.com/?post=791'
p1193
aS'http://www.365essay.com/?post=792'
p1194
aS'http://www.365essay.com/?post=793'
p1195
aS'http://www.365essay.com/?post=794'
p1196
aS'http://www.365essay.com/?post=795'
p1197
aS'http://www.365essay.com/?post=796'
p1198
aS'http://www.365essay.com/?post=797'
p1199
aS'http://www.365essay.com/?post=798'
p1200
aS'http://www.365essay.com/?post=799'
p1201
aS'http://www.365essay.com/?post=800'
p1202
aS'http://www.365essay.com/?post=801'
p1203
aS'http://www.365essay.com/?post=802'
p1204
aS'http://www.365essay.com/?post=803'
p1205
aS'http://www.365essay.com/?post=804'
p1206
aS'http://www.365essay.com/?post=805'
p1207
aS'http://www.365essay.com/?post=806'
p1208
aS'http://www.365essay.com/?post=807'
p1209
aS'http://www.365essay.com/?post=808'
p1210
aS'http://www.365essay.com/?post=809'
p1211
aS'http://www.365essay.com/?post=810'
p1212
aS'http://www.365essay.com/?post=811'
p1213
aS'http://www.365essay.com/?post=812'
p1214
aS'http://www.365essay.com/?post=813'
p1215
aS'http://www.365essay.com/?post=814'
p1216
aS'http://www.365essay.com/?post=815'
p1217
aS'http://www.365essay.com/?post=816'
p1218
aS'http://www.365essay.com/?post=817'
p1219
aS'http://www.365essay.com/?post=818'
p1220
aS'http://www.365essay.com/?post=819'
p1221
aS'http://www.365essay.com/?post=820'
p1222
aS'http://www.365essay.com/?post=821'
p1223
aS'http://www.365essay.com/?post=822'
p1224
aS'http://www.365essay.com/?post=823'
p1225
aS'http://www.365essay.com/?post=824'
p1226
aS'http://www.365essay.com/?post=825'
p1227
aS'http://www.365essay.com/?post=826'
p1228
aS'http://www.365essay.com/?post=827'
p1229
aS'http://www.365essay.com/?post=828'
p1230
aS'http://www.365essay.com/?post=829'
p1231
aS'http://www.365essay.com/?post=830'
p1232
aS'http://www.365essay.com/?post=831'
p1233
aS'http://www.365essay.com/?post=832'
p1234
aS'http://www.365essay.com/?post=833'
p1235
aS'http://www.365essay.com/?post=834'
p1236
aS'http://www.365essay.com/?post=835'
p1237
aS'http://www.365essay.com/?post=836'
p1238
aS'http://www.365essay.com/?post=837'
p1239
aS'http://www.365essay.com/?post=838'
p1240
aS'http://www.365essay.com/?post=839'
p1241
aS'http://www.365essay.com/?post=840'
p1242
aS'http://www.365essay.com/?post=841'
p1243
aS'http://www.365essay.com/?post=842'
p1244
aS'http://www.365essay.com/?post=843'
p1245
aS'http://www.365essay.com/?post=844'
p1246
aS'http://www.365essay.com/?post=845'
p1247
aS'http://www.365essay.com/?post=846'
p1248
aS'http://www.365essay.com/?post=847'
p1249
aS'http://www.365essay.com/?post=848'
p1250
aS'http://www.365essay.com/?post=849'
p1251
aS'http://www.365essay.com/?post=850'
p1252
aS'http://www.365essay.com/?post=851'
p1253
aS'http://www.365essay.com/?post=852'
p1254
aS'http://www.365essay.com/?post=853'
p1255
aS'http://www.365essay.com/?post=854'
p1256
aS'http://www.365essay.com/?post=855'
p1257
aS'http://www.365essay.com/?post=856'
p1258
aS'http://www.365essay.com/?post=857'
p1259
aS'http://www.365essay.com/?post=858'
p1260
aS'http://www.365essay.com/?post=859'
p1261
aS'http://www.365essay.com/?post=860'
p1262
aS'http://www.365essay.com/?post=861'
p1263
aS'http://www.365essay.com/?post=862'
p1264
aS'http://www.365essay.com/?post=863'
p1265
aS'http://www.365essay.com/?post=864'
p1266
aS'http://www.365essay.com/?post=865'
p1267
aS'http://www.365essay.com/?post=866'
p1268
aS'http://www.365essay.com/?post=867'
p1269
aS'http://www.365essay.com/?post=868'
p1270
aS'http://www.365essay.com/?post=869'
p1271
aS'http://www.365essay.com/?post=870'
p1272
aS'http://www.365essay.com/?post=871'
p1273
aS'http://www.365essay.com/?post=872'
p1274
aS'http://www.365essay.com/?post=873'
p1275
aS'http://www.365essay.com/?post=874'
p1276
aS'http://www.365essay.com/?post=875'
p1277
aS'http://www.365essay.com/?post=876'
p1278
aS'http://www.365essay.com/?post=877'
p1279
aS'http://www.365essay.com/?post=878'
p1280
aS'http://www.365essay.com/?post=879'
p1281
aS'http://www.365essay.com/?post=880'
p1282
aS'http://www.365essay.com/?post=881'
p1283
aS'http://www.365essay.com/?post=882'
p1284
aS'http://www.365essay.com/?post=883'
p1285
aS'http://www.365essay.com/?post=884'
p1286
aS'http://www.365essay.com/?post=885'
p1287
aS'http://www.365essay.com/?post=886'
p1288
aS'http://www.365essay.com/?post=887'
p1289
aS'http://www.365essay.com/?post=888'
p1290
aS'http://www.365essay.com/?post=889'
p1291
aS'http://www.365essay.com/?post=890'
p1292
aS'http://www.365essay.com/?post=891'
p1293
aS'http://www.365essay.com/?post=892'
p1294
aS'http://www.365essay.com/?post=893'
p1295
aS'http://www.365essay.com/?post=894'
p1296
aS'http://www.365essay.com/?post=895'
p1297
aS'http://www.365essay.com/?post=896'
p1298
aS'http://www.365essay.com/?post=897'
p1299
aS'http://www.365essay.com/?post=898'
p1300
aS'http://www.365essay.com/?post=899'
p1301
aS'http://www.365essay.com/?post=900'
p1302
aS'http://www.365essay.com/?post=901'
p1303
aS'http://www.365essay.com/?post=902'
p1304
aS'http://www.365essay.com/?post=903'
p1305
aS'http://www.365essay.com/?post=904'
p1306
aS'http://www.365essay.com/?post=905'
p1307
aS'http://www.365essay.com/?post=906'
p1308
aS'http://www.365essay.com/?post=907'
p1309
aS'http://www.365essay.com/?post=908'
p1310
aS'http://www.365essay.com/?post=909'
p1311
aS'http://www.365essay.com/?post=910'
p1312
aS'http://www.365essay.com/?post=911'
p1313
aS'http://www.365essay.com/?post=912'
p1314
aS'http://www.365essay.com/?post=913'
p1315
aS'http://www.365essay.com/?post=914'
p1316
aS'http://www.365essay.com/?post=915'
p1317
aS'http://www.365essay.com/?post=916'
p1318
aS'http://www.365essay.com/?post=917'
p1319
aS'http://www.365essay.com/?post=918'
p1320
aS'http://www.365essay.com/?post=919'
p1321
aS'http://www.365essay.com/?post=920'
p1322
aS'http://www.365essay.com/?post=921'
p1323
aS'http://www.365essay.com/?post=922'
p1324
aS'http://www.365essay.com/?post=923'
p1325
aS'http://www.365essay.com/?post=924'
p1326
aS'http://www.365essay.com/?post=925'
p1327
aS'http://www.365essay.com/?post=926'
p1328
aS'http://www.365essay.com/?post=927'
p1329
aS'http://www.365essay.com/?post=928'
p1330
aS'http://www.365essay.com/?post=929'
p1331
aS'http://www.365essay.com/?post=930'
p1332
aS'http://www.365essay.com/?post=931'
p1333
aS'http://www.365essay.com/?post=932'
p1334
aS'http://www.365essay.com/?post=933'
p1335
aS'http://www.365essay.com/?post=934'
p1336
aS'http://www.365essay.com/?post=935'
p1337
aS'http://www.365essay.com/?post=936'
p1338
aS'http://www.365essay.com/?post=937'
p1339
aS'http://www.365essay.com/?post=938'
p1340
aS'http://www.365essay.com/?post=939'
p1341
aS'http://www.365essay.com/?post=940'
p1342
aS'http://www.365essay.com/?post=941'
p1343
aS'http://www.365essay.com/?post=942'
p1344
aS'http://www.365essay.com/?post=943'
p1345
aS'http://www.365essay.com/?post=944'
p1346
aS'http://www.365essay.com/?post=945'
p1347
aS'http://www.365essay.com/?post=946'
p1348
aS'http://www.365essay.com/?post=947'
p1349
aS'http://www.365essay.com/?post=948'
p1350
aS'http://www.365essay.com/?post=949'
p1351
aS'http://www.365essay.com/?post=950'
p1352
aS'http://www.365essay.com/?post=951'
p1353
aS'http://www.365essay.com/?post=952'
p1354
aS'http://www.365essay.com/?post=953'
p1355
aS'http://www.365essay.com/?post=954'
p1356
aS'http://www.365essay.com/?post=955'
p1357
aS'http://www.365essay.com/?post=956'
p1358
aS'http://www.365essay.com/?post=957'
p1359
aS'http://www.365essay.com/?post=958'
p1360
aS'http://www.365essay.com/?post=959'
p1361
aS'http://www.365essay.com/?post=960'
p1362
aS'http://www.365essay.com/?post=961'
p1363
aS'http://www.365essay.com/?post=962'
p1364
aS'http://www.365essay.com/?post=963'
p1365
aS'http://www.365essay.com/?post=964'
p1366
aS'http://www.365essay.com/?post=965'
p1367
aS'http://www.365essay.com/?post=966'
p1368
aS'http://www.365essay.com/?post=967'
p1369
aS'http://www.365essay.com/?post=968'
p1370
aS'http://www.365essay.com/?post=969'
p1371
aS'http://www.365essay.com/?post=970'
p1372
aS'http://www.365essay.com/?post=971'
p1373
aS'http://www.365essay.com/?post=972'
p1374
aS'http://www.365essay.com/?post=973'
p1375
aS'http://www.365essay.com/?post=974'
p1376
aS'http://www.365essay.com/?post=975'
p1377
aS'http://www.365essay.com/?post=976'
p1378
aS'http://www.365essay.com/?post=977'
p1379
aS'http://www.365essay.com/?post=978'
p1380
aS'http://www.365essay.com/?post=979'
p1381
aS'http://www.365essay.com/?post=980'
p1382
aS'http://www.365essay.com/?post=981'
p1383
aS'http://www.365essay.com/?post=982'
p1384
aS'http://www.365essay.com/?post=983'
p1385
aS'http://www.365essay.com/?post=984'
p1386
aS'http://www.365essay.com/?post=985'
p1387
aS'http://www.365essay.com/?post=986'
p1388
aS'http://www.365essay.com/?post=987'
p1389
aS'http://www.365essay.com/?post=988'
p1390
aS'http://www.365essay.com/?post=989'
p1391
aS'http://www.365essay.com/?post=990'
p1392
aS'http://www.365essay.com/?post=991'
p1393
aS'http://www.365essay.com/?post=992'
p1394
aS'http://www.365essay.com/?post=993'
p1395
aS'http://www.365essay.com/?post=994'
p1396
aS'http://www.365essay.com/?post=995'
p1397
aS'http://www.365essay.com/?post=996'
p1398
aS'http://www.365essay.com/?post=997'
p1399
aS'http://www.365essay.com/?post=998'
p1400
aS'http://www.365essay.com/?post=999'
p1401
aS'http://www.365essay.com/?post=1000'
p1402
aS'http://www.365essay.com/?post=1001'
p1403
aS'http://www.365essay.com/?post=1002'
p1404
aS'http://www.365essay.com/?post=1003'
p1405
aS'http://www.365essay.com/?post=1004'
p1406
aS'http://www.365essay.com/?post=1005'
p1407
aS'http://www.365essay.com/?post=1006'
p1408
aS'http://www.365essay.com/?post=1007'
p1409
aS'http://www.365essay.com/?post=1008'
p1410
aS'http://www.365essay.com/?post=1009'
p1411
aS'http://www.365essay.com/?post=1010'
p1412
aS'http://www.365essay.com/?post=1011'
p1413
aS'http://www.365essay.com/?post=1012'
p1414
aS'http://www.365essay.com/?post=1013'
p1415
aS'http://www.365essay.com/?post=1014'
p1416
aS'http://www.365essay.com/?post=1015'
p1417
aS'http://www.365essay.com/?post=1016'
p1418
aS'http://www.365essay.com/?post=1017'
p1419
aS'http://www.365essay.com/?post=1018'
p1420
aS'http://www.365essay.com/?post=1019'
p1421
aS'http://www.365essay.com/?post=1020'
p1422
aS'http://www.365essay.com/?post=1021'
p1423
aS'http://www.365essay.com/?post=1022'
p1424
aS'http://www.365essay.com/?post=1023'
p1425
aS'http://www.365essay.com/?post=1024'
p1426
aS'http://www.365essay.com/?post=1025'
p1427
aS'http://www.365essay.com/?post=1026'
p1428
aS'http://www.365essay.com/?post=1027'
p1429
aS'http://www.365essay.com/?post=1028'
p1430
aS'http://www.365essay.com/?post=1029'
p1431
aS'http://www.365essay.com/?post=1030'
p1432
aS'http://www.365essay.com/?post=1031'
p1433
aS'http://www.365essay.com/?post=1032'
p1434
aS'http://www.365essay.com/?post=1033'
p1435
aS'http://www.365essay.com/?post=1034'
p1436
aS'http://www.365essay.com/?post=1035'
p1437
aS'http://www.365essay.com/?post=1036'
p1438
aS'http://www.365essay.com/?post=1037'
p1439
aS'http://www.365essay.com/?post=1038'
p1440
aS'http://www.365essay.com/?post=1039'
p1441
aS'http://www.365essay.com/?post=1040'
p1442
aS'http://www.365essay.com/?post=1041'
p1443
aS'http://www.365essay.com/?post=1042'
p1444
aS'http://www.365essay.com/?post=1043'
p1445
aS'http://www.365essay.com/?post=1044'
p1446
aS'http://www.365essay.com/?post=1045'
p1447
aS'http://www.365essay.com/?post=1046'
p1448
aS'http://www.365essay.com/?post=1047'
p1449
aS'http://www.365essay.com/?post=1048'
p1450
aS'http://www.365essay.com/?post=1049'
p1451
aS'http://www.365essay.com/?post=1050'
p1452
aS'http://www.365essay.com/?post=1051'
p1453
aS'http://www.365essay.com/?post=1052'
p1454
aS'http://www.365essay.com/?post=1053'
p1455
aS'http://www.365essay.com/?post=1054'
p1456
aS'http://www.365essay.com/?post=1055'
p1457
aS'http://www.365essay.com/?post=1056'
p1458
aS'http://www.365essay.com/?post=1057'
p1459
aS'http://www.365essay.com/?post=1058'
p1460
aS'http://www.365essay.com/?post=1059'
p1461
aS'http://www.365essay.com/?post=1060'
p1462
aS'http://www.365essay.com/?post=1061'
p1463
aS'http://www.365essay.com/?post=1062'
p1464
aS'http://www.365essay.com/?post=1063'
p1465
aS'http://www.365essay.com/?post=1064'
p1466
aS'http://www.365essay.com/?post=1065'
p1467
aS'http://www.365essay.com/?post=1066'
p1468
aS'http://www.365essay.com/?post=1067'
p1469
aS'http://www.365essay.com/?post=1068'
p1470
aS'http://www.365essay.com/?post=1069'
p1471
aS'http://www.365essay.com/?post=1070'
p1472
aS'http://www.365essay.com/?post=1071'
p1473
aS'http://www.365essay.com/?post=1072'
p1474
aS'http://www.365essay.com/?post=1073'
p1475
aS'http://www.365essay.com/?post=1074'
p1476
aS'http://www.365essay.com/?post=1075'
p1477
aS'http://www.365essay.com/?post=1076'
p1478
aS'http://www.365essay.com/?post=1077'
p1479
aS'http://www.365essay.com/?post=1078'
p1480
aS'http://www.365essay.com/?post=1079'
p1481
aS'http://www.365essay.com/?post=1080'
p1482
aS'http://www.365essay.com/?post=1081'
p1483
aS'http://www.365essay.com/?post=1082'
p1484
aS'http://www.365essay.com/?post=1083'
p1485
aS'http://www.365essay.com/?post=1084'
p1486
aS'http://www.365essay.com/?post=1085'
p1487
aS'http://www.365essay.com/?post=1086'
p1488
aS'http://www.365essay.com/?post=1087'
p1489
aS'http://www.365essay.com/?post=1088'
p1490
aS'http://www.365essay.com/?post=1089'
p1491
aS'http://www.365essay.com/?post=1090'
p1492
aS'http://www.365essay.com/?post=1091'
p1493
aS'http://www.365essay.com/?post=1092'
p1494
aS'http://www.365essay.com/?post=1093'
p1495
aS'http://www.365essay.com/?post=1094'
p1496
aS'http://www.365essay.com/?post=1095'
p1497
aS'http://www.365essay.com/?post=1096'
p1498
aS'http://www.365essay.com/?post=1097'
p1499
aS'http://www.365essay.com/?post=1098'
p1500
aS'http://www.365essay.com/?post=1099'
p1501
aS'http://www.365essay.com/?post=1100'
p1502
aS'http://www.365essay.com/?post=1101'
p1503
aS'http://www.365essay.com/?post=1102'
p1504
aS'http://www.365essay.com/?post=1103'
p1505
aS'http://www.365essay.com/?post=1104'
p1506
aS'http://www.365essay.com/?post=1105'
p1507
aS'http://www.365essay.com/?post=1106'
p1508
aS'http://www.365essay.com/?post=1107'
p1509
aS'http://www.365essay.com/?post=1108'
p1510
aS'http://www.365essay.com/?post=1109'
p1511
aS'http://www.365essay.com/?post=1110'
p1512
aS'http://www.365essay.com/?post=1111'
p1513
aS'http://www.365essay.com/?post=1112'
p1514
aS'http://www.365essay.com/?post=1113'
p1515
aS'http://www.365essay.com/?post=1114'
p1516
aS'http://www.365essay.com/?post=1115'
p1517
aS'http://www.365essay.com/?post=1116'
p1518
aS'http://www.365essay.com/?post=1117'
p1519
aS'http://www.365essay.com/?post=1118'
p1520
aS'http://www.365essay.com/?post=1119'
p1521
aS'http://www.365essay.com/?post=1120'
p1522
aS'http://www.365essay.com/?post=1121'
p1523
aS'http://www.365essay.com/?post=1122'
p1524
aS'http://www.365essay.com/?post=1123'
p1525
aS'http://www.365essay.com/?post=1124'
p1526
aS'http://www.365essay.com/?post=1125'
p1527
aS'http://www.365essay.com/?post=1126'
p1528
aS'http://www.365essay.com/?post=1127'
p1529
aS'http://www.365essay.com/?post=1128'
p1530
aS'http://www.365essay.com/?post=1129'
p1531
aS'http://www.365essay.com/?post=1130'
p1532
aS'http://www.365essay.com/?post=1131'
p1533
aS'http://www.365essay.com/?post=1132'
p1534
aS'http://www.365essay.com/?post=1133'
p1535
aS'http://www.365essay.com/?post=1134'
p1536
aS'http://www.365essay.com/?post=1135'
p1537
aS'http://www.365essay.com/?post=1136'
p1538
aS'http://www.365essay.com/?post=1137'
p1539
aS'http://www.365essay.com/?post=1138'
p1540
aS'http://www.365essay.com/?post=1139'
p1541
aS'http://www.365essay.com/?post=1140'
p1542
aS'http://www.365essay.com/?post=1141'
p1543
aS'http://www.365essay.com/?post=1142'
p1544
aS'http://www.365essay.com/?post=1143'
p1545
aS'http://www.365essay.com/?post=1144'
p1546
aS'http://www.365essay.com/?post=1145'
p1547
aS'http://www.365essay.com/?post=1146'
p1548
aS'http://www.365essay.com/?post=1147'
p1549
aS'http://www.365essay.com/?post=1148'
p1550
aS'http://www.365essay.com/?post=1149'
p1551
aS'http://www.365essay.com/?post=1150'
p1552
aS'http://www.365essay.com/?post=1151'
p1553
aS'http://www.365essay.com/?post=1152'
p1554
aS'http://www.365essay.com/?post=1153'
p1555
aS'http://www.365essay.com/?post=1154'
p1556
aS'http://www.365essay.com/?post=1155'
p1557
aS'http://www.365essay.com/?post=1156'
p1558
aS'http://www.365essay.com/?post=1157'
p1559
aS'http://www.365essay.com/?post=1158'
p1560
aS'http://www.365essay.com/?post=1159'
p1561
aS'http://www.365essay.com/?post=1160'
p1562
aS'http://www.365essay.com/?post=1161'
p1563
aS'http://www.365essay.com/?post=1162'
p1564
aS'http://www.365essay.com/?post=1163'
p1565
aS'http://www.365essay.com/?post=1164'
p1566
aS'http://www.365essay.com/?post=1165'
p1567
aS'http://www.365essay.com/?post=1166'
p1568
aS'http://www.365essay.com/?post=1167'
p1569
aS'http://www.365essay.com/?post=1168'
p1570
aS'http://www.365essay.com/?post=1169'
p1571
aS'http://www.365essay.com/?post=1170'
p1572
aS'http://www.365essay.com/?post=1171'
p1573
aS'http://www.365essay.com/?post=1172'
p1574
aS'http://www.365essay.com/?post=1173'
p1575
aS'http://www.365essay.com/?post=1174'
p1576
aS'http://www.365essay.com/?post=1175'
p1577
aS'http://www.365essay.com/?post=1176'
p1578
aS'http://www.365essay.com/?post=1177'
p1579
aS'http://www.365essay.com/?post=1178'
p1580
aS'http://www.365essay.com/?post=1179'
p1581
aS'http://www.365essay.com/?post=1180'
p1582
aS'http://www.365essay.com/?post=1181'
p1583
aS'http://www.365essay.com/?post=1182'
p1584
aS'http://www.365essay.com/?post=1183'
p1585
aS'http://www.365essay.com/?post=1184'
p1586
aS'http://www.365essay.com/?post=1185'
p1587
aS'http://www.365essay.com/?post=1186'
p1588
aS'http://www.365essay.com/?post=1187'
p1589
aS'http://www.365essay.com/?post=1188'
p1590
aS'http://www.365essay.com/?post=1189'
p1591
aS'http://www.365essay.com/?post=1190'
p1592
aS'http://www.365essay.com/?post=1191'
p1593
aS'http://www.365essay.com/?post=1192'
p1594
aS'http://www.365essay.com/?post=1193'
p1595
aS'http://www.365essay.com/?post=1194'
p1596
aS'http://www.365essay.com/?post=1195'
p1597
aS'http://www.365essay.com/?post=1196'
p1598
aS'http://www.365essay.com/?post=1197'
p1599
aS'http://www.365essay.com/?post=1198'
p1600
aS'http://www.365essay.com/?post=1199'
p1601
aS'http://www.365essay.com/?post=1200'
p1602
aS'http://www.365essay.com/?post=1201'
p1603
aS'http://www.365essay.com/?post=1202'
p1604
aS'http://www.365essay.com/?post=1203'
p1605
aS'http://www.365essay.com/?post=1204'
p1606
aS'http://www.365essay.com/?post=1205'
p1607
aS'http://www.365essay.com/?post=1206'
p1608
aS'http://www.365essay.com/?post=1207'
p1609
aS'http://www.365essay.com/?post=1208'
p1610
aS'http://www.365essay.com/?post=1209'
p1611
aS'http://www.365essay.com/?post=1210'
p1612
aS'http://www.365essay.com/?post=1211'
p1613
aS'http://www.365essay.com/?post=1212'
p1614
aS'http://www.365essay.com/?post=1213'
p1615
aS'http://www.365essay.com/?post=1214'
p1616
aS'http://www.365essay.com/?post=1215'
p1617
aS'http://www.365essay.com/?post=1216'
p1618
aS'http://www.365essay.com/?post=1217'
p1619
aS'http://www.365essay.com/?post=1218'
p1620
aS'http://www.365essay.com/?post=1219'
p1621
aS'http://www.365essay.com/?post=1220'
p1622
aS'http://www.365essay.com/?post=1221'
p1623
aS'http://www.365essay.com/?post=1222'
p1624
aS'http://www.365essay.com/?post=1223'
p1625
aS'http://www.365essay.com/?post=1224'
p1626
aS'http://www.365essay.com/?post=1225'
p1627
aS'http://www.365essay.com/?post=1226'
p1628
aS'http://www.365essay.com/?post=1227'
p1629
aS'http://www.365essay.com/?post=1228'
p1630
aS'http://www.365essay.com/?post=1229'
p1631
aS'http://www.365essay.com/?post=1230'
p1632
aS'http://www.365essay.com/?post=1231'
p1633
aS'http://www.365essay.com/?post=1232'
p1634
aS'http://www.365essay.com/?post=1233'
p1635
aS'http://www.365essay.com/?post=1234'
p1636
aS'http://www.365essay.com/?post=1235'
p1637
aS'http://www.365essay.com/?post=1236'
p1638
aS'http://www.365essay.com/?post=1237'
p1639
aS'http://www.365essay.com/?post=1238'
p1640
aS'http://www.365essay.com/?post=1239'
p1641
aS'http://www.365essay.com/?post=1240'
p1642
aS'http://www.365essay.com/?post=1241'
p1643
aS'http://www.365essay.com/?post=1242'
p1644
aS'http://www.365essay.com/?post=1243'
p1645
aS'http://www.365essay.com/?post=1244'
p1646
aS'http://www.365essay.com/?post=1245'
p1647
aS'http://www.365essay.com/?post=1246'
p1648
aS'http://www.365essay.com/?post=1247'
p1649
aS'http://www.365essay.com/?post=1248'
p1650
aS'http://www.365essay.com/?post=1249'
p1651
aS'http://www.365essay.com/?post=1250'
p1652
aS'http://www.365essay.com/?post=1251'
p1653
aS'http://www.365essay.com/?post=1252'
p1654
aS'http://www.365essay.com/?post=1253'
p1655
aS'http://www.365essay.com/?post=1254'
p1656
aS'http://www.365essay.com/?post=1255'
p1657
aS'http://www.365essay.com/?post=1256'
p1658
aS'http://www.365essay.com/?post=1257'
p1659
aS'http://www.365essay.com/?post=1258'
p1660
aS'http://www.365essay.com/?post=1259'
p1661
aS'http://www.365essay.com/?post=1260'
p1662
aS'http://www.365essay.com/?post=1261'
p1663
aS'http://www.365essay.com/?post=1262'
p1664
aS'http://www.365essay.com/?post=1263'
p1665
aS'http://www.365essay.com/?post=1264'
p1666
aS'http://www.365essay.com/?post=1265'
p1667
aS'http://www.365essay.com/?post=1266'
p1668
aS'http://www.365essay.com/?post=1267'
p1669
aS'http://www.365essay.com/?post=1268'
p1670
aS'http://www.365essay.com/?post=1269'
p1671
aS'http://www.365essay.com/?post=1270'
p1672
aS'http://www.365essay.com/?post=1271'
p1673
aS'http://www.365essay.com/?post=1272'
p1674
aS'http://www.365essay.com/?post=1273'
p1675
aS'http://www.365essay.com/?post=1274'
p1676
aS'http://www.365essay.com/?post=1275'
p1677
aS'http://www.365essay.com/?post=1276'
p1678
aS'http://www.365essay.com/?post=1277'
p1679
aS'http://www.365essay.com/?post=1278'
p1680
aS'http://www.365essay.com/?post=1279'
p1681
aS'http://www.365essay.com/?post=1280'
p1682
aS'http://www.365essay.com/?post=1281'
p1683
aS'http://www.365essay.com/?post=1282'
p1684
aS'http://www.365essay.com/?post=1283'
p1685
aS'http://www.365essay.com/?post=1284'
p1686
aS'http://www.365essay.com/?post=1285'
p1687
aS'http://www.365essay.com/?post=1286'
p1688
aS'http://www.365essay.com/?post=1287'
p1689
aS'http://www.365essay.com/?post=1288'
p1690
aS'http://www.365essay.com/?post=1289'
p1691
aS'http://www.365essay.com/?post=1290'
p1692
aS'http://www.365essay.com/?post=1291'
p1693
aS'http://www.365essay.com/?post=1292'
p1694
aS'http://www.365essay.com/?post=1293'
p1695
aS'http://www.365essay.com/?post=1294'
p1696
aS'http://www.365essay.com/?post=1295'
p1697
aS'http://www.365essay.com/?post=1296'
p1698
aS'http://www.365essay.com/?post=1297'
p1699
aS'http://www.365essay.com/?post=1298'
p1700
aS'http://www.365essay.com/?post=1299'
p1701
aS'http://www.365essay.com/?post=1300'
p1702
aS'http://www.365essay.com/?post=1301'
p1703
aS'http://www.365essay.com/?post=1302'
p1704
aS'http://www.365essay.com/?post=1303'
p1705
aS'http://www.365essay.com/?post=1304'
p1706
aS'http://www.365essay.com/?post=1305'
p1707
aS'http://www.365essay.com/?post=1306'
p1708
aS'http://www.365essay.com/?post=1307'
p1709
aS'http://www.365essay.com/?post=1308'
p1710
aS'http://www.365essay.com/?post=1309'
p1711
aS'http://www.365essay.com/?post=1310'
p1712
aS'http://www.365essay.com/?post=1311'
p1713
aS'http://www.365essay.com/?post=1312'
p1714
aS'http://www.365essay.com/?post=1313'
p1715
aS'http://www.365essay.com/?post=1314'
p1716
aS'http://www.365essay.com/?post=1315'
p1717
aS'http://www.365essay.com/?post=1316'
p1718
aS'http://www.365essay.com/?post=1317'
p1719
aS'http://www.365essay.com/?post=1318'
p1720
aS'http://www.365essay.com/?post=1319'
p1721
aS'http://www.365essay.com/?post=1320'
p1722
aS'http://www.365essay.com/?post=1321'
p1723
aS'http://www.365essay.com/?post=1322'
p1724
aS'http://www.365essay.com/?post=1323'
p1725
aS'http://www.365essay.com/?post=1324'
p1726
aS'http://www.365essay.com/?post=1325'
p1727
aS'http://www.365essay.com/?post=1326'
p1728
aS'http://www.365essay.com/?post=1327'
p1729
aS'http://www.365essay.com/?post=1328'
p1730
aS'http://www.365essay.com/?post=1329'
p1731
aS'http://www.365essay.com/?post=1330'
p1732
aS'http://www.365essay.com/?post=1331'
p1733
aS'http://www.365essay.com/?post=1332'
p1734
aS'http://www.365essay.com/?post=1333'
p1735
aS'http://www.365essay.com/?post=1334'
p1736
aS'http://www.365essay.com/?post=1335'
p1737
aS'http://www.365essay.com/?post=1336'
p1738
aS'http://www.365essay.com/?post=1337'
p1739
aS'http://www.365essay.com/?post=1338'
p1740
aS'http://www.365essay.com/?post=1339'
p1741
aS'http://www.365essay.com/?post=1340'
p1742
aS'http://www.365essay.com/?post=1341'
p1743
aS'http://www.365essay.com/?post=1342'
p1744
aS'http://www.365essay.com/?post=1343'
p1745
aS'http://www.365essay.com/?post=1344'
p1746
aS'http://www.365essay.com/?post=1345'
p1747
aS'http://www.365essay.com/?post=1346'
p1748
aS'http://www.365essay.com/?post=1347'
p1749
aS'http://www.365essay.com/?post=1348'
p1750
aS'http://www.365essay.com/?post=1349'
p1751
aS'http://www.365essay.com/?post=1350'
p1752
aS'http://www.365essay.com/?post=1351'
p1753
aS'http://www.365essay.com/?post=1352'
p1754
aS'http://www.365essay.com/?post=1353'
p1755
aS'http://www.365essay.com/?post=1354'
p1756
aS'http://www.365essay.com/?post=1355'
p1757
aS'http://www.365essay.com/?post=1356'
p1758
aS'http://www.365essay.com/?post=1357'
p1759
aS'http://www.365essay.com/?post=1358'
p1760
aS'http://www.365essay.com/?post=1359'
p1761
aS'http://www.365essay.com/?post=1360'
p1762
aS'http://www.365essay.com/?post=1361'
p1763
aS'http://www.365essay.com/?post=1362'
p1764
aS'http://www.365essay.com/?post=1363'
p1765
aS'http://www.365essay.com/?post=1364'
p1766
aS'http://www.365essay.com/?post=1365'
p1767
aS'http://www.365essay.com/?post=1366'
p1768
aS'http://www.365essay.com/?post=1367'
p1769
aS'http://www.365essay.com/?post=1368'
p1770
aS'http://www.365essay.com/?post=1369'
p1771
aS'http://www.365essay.com/?post=1370'
p1772
aS'http://www.365essay.com/?post=1371'
p1773
aS'http://www.365essay.com/?post=1372'
p1774
aS'http://www.365essay.com/?post=1373'
p1775
aS'http://www.365essay.com/?post=1374'
p1776
aS'http://www.365essay.com/?post=1375'
p1777
aS'http://www.365essay.com/?post=1376'
p1778
aS'http://www.365essay.com/?post=1377'
p1779
aS'http://www.365essay.com/?post=1378'
p1780
aS'http://www.365essay.com/?post=1379'
p1781
aS'http://www.365essay.com/?post=1380'
p1782
aS'http://www.365essay.com/?post=1381'
p1783
aS'http://www.365essay.com/?post=1382'
p1784
aS'http://www.365essay.com/?post=1383'
p1785
aS'http://www.365essay.com/?post=1384'
p1786
aS'http://www.365essay.com/?post=1385'
p1787
aS'http://www.365essay.com/?post=1386'
p1788
aS'http://www.365essay.com/?post=1387'
p1789
aS'http://www.365essay.com/?post=1388'
p1790
aS'http://www.365essay.com/?post=1389'
p1791
aS'http://www.365essay.com/?post=1390'
p1792
aS'http://www.365essay.com/?post=1391'
p1793
aS'http://www.365essay.com/?post=1392'
p1794
aS'http://www.365essay.com/?post=1393'
p1795
aS'http://www.365essay.com/?post=1394'
p1796
aS'http://www.365essay.com/?post=1395'
p1797
aS'http://www.365essay.com/?post=1396'
p1798
aS'http://www.365essay.com/?post=1397'
p1799
aS'http://www.365essay.com/?post=1398'
p1800
aS'http://www.365essay.com/?post=1399'
p1801
aS'http://www.365essay.com/?post=1400'
p1802
aS'http://www.365essay.com/?post=1401'
p1803
aS'http://www.365essay.com/?post=1402'
p1804
aS'http://www.365essay.com/?post=1403'
p1805
aS'http://www.365essay.com/?post=1404'
p1806
aS'http://www.365essay.com/?post=1405'
p1807
aS'http://www.365essay.com/?post=1406'
p1808
aS'http://www.365essay.com/?post=1407'
p1809
aS'http://www.365essay.com/?post=1408'
p1810
aS'http://www.365essay.com/?post=1409'
p1811
aS'http://www.365essay.com/?post=1410'
p1812
aS'http://www.365essay.com/?post=1411'
p1813
aS'http://www.365essay.com/?post=1412'
p1814
aS'http://www.365essay.com/?post=1413'
p1815
aS'http://www.365essay.com/?post=1414'
p1816
aS'http://www.365essay.com/?post=1415'
p1817
aS'http://www.365essay.com/?post=1416'
p1818
aS'http://www.365essay.com/?post=1417'
p1819
aS'http://www.365essay.com/?post=1418'
p1820
aS'http://www.365essay.com/?post=1419'
p1821
aS'http://www.365essay.com/?post=1420'
p1822
aS'http://www.365essay.com/?post=1421'
p1823
aS'http://www.365essay.com/?post=1422'
p1824
aS'http://www.365essay.com/?post=1423'
p1825
aS'http://www.365essay.com/?post=1424'
p1826
aS'http://www.365essay.com/?post=1425'
p1827
aS'http://www.365essay.com/?post=1426'
p1828
aS'http://www.365essay.com/?post=1427'
p1829
aS'http://www.365essay.com/?post=1428'
p1830
aS'http://www.365essay.com/?post=1429'
p1831
aS'http://www.365essay.com/?post=1430'
p1832
aS'http://www.365essay.com/?post=1431'
p1833
aS'http://www.365essay.com/?post=1432'
p1834
aS'http://www.365essay.com/?post=1433'
p1835
aS'http://www.365essay.com/?post=1434'
p1836
aS'http://www.365essay.com/?post=1435'
p1837
aS'http://www.365essay.com/?post=1436'
p1838
aS'http://www.365essay.com/?post=1437'
p1839
aS'http://www.365essay.com/?post=1438'
p1840
aS'http://www.365essay.com/?post=1439'
p1841
aS'http://www.365essay.com/?post=1440'
p1842
aS'http://www.365essay.com/?post=1441'
p1843
aS'http://www.365essay.com/?post=1442'
p1844
aS'http://www.365essay.com/?post=1443'
p1845
aS'http://www.365essay.com/?post=1444'
p1846
aS'http://www.365essay.com/?post=1445'
p1847
aS'http://www.365essay.com/?post=1446'
p1848
aS'http://www.365essay.com/?post=1447'
p1849
aS'http://www.365essay.com/?post=1448'
p1850
aS'http://www.365essay.com/?post=1449'
p1851
aS'http://www.365essay.com/?post=1450'
p1852
aS'http://www.365essay.com/?post=1451'
p1853
aS'http://www.365essay.com/?post=1452'
p1854
aS'http://www.365essay.com/?post=1453'
p1855
aS'http://www.365essay.com/?post=1454'
p1856
aS'http://www.365essay.com/?post=1455'
p1857
aS'http://www.365essay.com/?post=1456'
p1858
aS'http://www.365essay.com/?post=1457'
p1859
aS'http://www.365essay.com/?post=1458'
p1860
aS'http://www.365essay.com/?post=1459'
p1861
aS'http://www.365essay.com/?post=1460'
p1862
aS'http://www.365essay.com/?post=1461'
p1863
aS'http://www.365essay.com/?post=1462'
p1864
aS'http://www.365essay.com/?post=1463'
p1865
aS'http://www.365essay.com/?post=1464'
p1866
aS'http://www.365essay.com/?post=1465'
p1867
aS'http://www.365essay.com/?post=1466'
p1868
aS'http://www.365essay.com/?post=1467'
p1869
aS'http://www.365essay.com/?post=1468'
p1870
aS'http://www.365essay.com/?post=1469'
p1871
aS'http://www.365essay.com/?post=1470'
p1872
aS'http://www.365essay.com/?post=1471'
p1873
aS'http://www.365essay.com/?post=1472'
p1874
aS'http://www.365essay.com/?post=1473'
p1875
aS'http://www.365essay.com/?post=1474'
p1876
aS'http://www.365essay.com/?post=1475'
p1877
aS'http://www.365essay.com/?post=1476'
p1878
aS'http://www.365essay.com/?post=1477'
p1879
aS'http://www.365essay.com/?post=1478'
p1880
aS'http://www.365essay.com/?post=1479'
p1881
aS'http://www.365essay.com/?post=1480'
p1882
aS'http://www.365essay.com/?post=1481'
p1883
aS'http://www.365essay.com/?post=1482'
p1884
aS'http://www.365essay.com/?post=1483'
p1885
aS'http://www.365essay.com/?post=1484'
p1886
aS'http://www.365essay.com/?post=1485'
p1887
aS'http://www.365essay.com/?post=1486'
p1888
aS'http://www.365essay.com/?post=1487'
p1889
aS'http://www.365essay.com/?post=1488'
p1890
aS'http://www.365essay.com/?post=1489'
p1891
aS'http://www.365essay.com/?post=1490'
p1892
aS'http://www.365essay.com/?post=1491'
p1893
aS'http://www.365essay.com/?post=1492'
p1894
aS'http://www.365essay.com/?post=1493'
p1895
aS'http://www.365essay.com/?post=1494'
p1896
aS'http://www.365essay.com/?post=1495'
p1897
aS'http://www.365essay.com/?post=1496'
p1898
aS'http://www.365essay.com/?post=1497'
p1899
aS'http://www.365essay.com/?post=1498'
p1900
aS'http://www.365essay.com/?post=1499'
p1901
aS'http://www.365essay.com/?post=1500'
p1902
aS'http://www.365essay.com/?post=1501'
p1903
aS'http://www.365essay.com/?post=1502'
p1904
aS'http://www.365essay.com/?post=1503'
p1905
aS'http://www.365essay.com/?post=1504'
p1906
aS'http://www.365essay.com/?post=1505'
p1907
aS'http://www.365essay.com/?post=1506'
p1908
aS'http://www.365essay.com/?post=1507'
p1909
aS'http://www.365essay.com/?post=1508'
p1910
aS'http://www.365essay.com/?post=1509'
p1911
aS'http://www.365essay.com/?post=1510'
p1912
aS'http://www.365essay.com/?post=1511'
p1913
aS'http://www.365essay.com/?post=1512'
p1914
aS'http://www.365essay.com/?post=1513'
p1915
aS'http://www.365essay.com/?post=1514'
p1916
aS'http://www.365essay.com/?post=1515'
p1917
aS'http://www.365essay.com/?post=1516'
p1918
aS'http://www.365essay.com/?post=1517'
p1919
aS'http://www.365essay.com/?post=1518'
p1920
aS'http://www.365essay.com/?post=1519'
p1921
aS'http://www.365essay.com/?post=1520'
p1922
aS'http://www.365essay.com/?post=1521'
p1923
aS'http://www.365essay.com/?post=1522'
p1924
aS'http://www.365essay.com/?post=1523'
p1925
aS'http://www.365essay.com/?post=1524'
p1926
aS'http://www.365essay.com/?post=1525'
p1927
aS'http://www.365essay.com/?post=1526'
p1928
aS'http://www.365essay.com/?post=1527'
p1929
aS'http://www.365essay.com/?post=1528'
p1930
aS'http://www.365essay.com/?post=1529'
p1931
aS'http://www.365essay.com/?post=1530'
p1932
aS'http://www.365essay.com/?post=1531'
p1933
aS'http://www.365essay.com/?post=1532'
p1934
aS'http://www.365essay.com/?post=1533'
p1935
aS'http://www.365essay.com/?post=1534'
p1936
aS'http://www.365essay.com/?post=1535'
p1937
aS'http://www.365essay.com/?post=1536'
p1938
aS'http://www.365essay.com/?post=1537'
p1939
aS'http://www.365essay.com/?post=1538'
p1940
aS'http://www.365essay.com/?post=1539'
p1941
aS'http://www.365essay.com/?post=1540'
p1942
aS'http://www.365essay.com/?post=1541'
p1943
aS'http://www.365essay.com/?post=1542'
p1944
aS'http://www.365essay.com/?post=1543'
p1945
aS'http://www.365essay.com/?post=1544'
p1946
aS'http://www.365essay.com/?post=1545'
p1947
aS'http://www.365essay.com/?post=1546'
p1948
aS'http://www.365essay.com/?post=1547'
p1949
aS'http://www.365essay.com/?post=1548'
p1950
aS'http://www.365essay.com/?post=1549'
p1951
aS'http://www.365essay.com/?post=1550'
p1952
aS'http://www.365essay.com/?post=1551'
p1953
aS'http://www.365essay.com/?post=1552'
p1954
aS'http://www.365essay.com/?post=1553'
p1955
aS'http://www.365essay.com/?post=1554'
p1956
aS'http://www.365essay.com/?post=1555'
p1957
aS'http://www.365essay.com/?post=1556'
p1958
aS'http://www.365essay.com/?post=1557'
p1959
aS'http://www.365essay.com/?post=1558'
p1960
aS'http://www.365essay.com/?post=1559'
p1961
aS'http://www.365essay.com/?post=1560'
p1962
aS'http://www.365essay.com/?post=1561'
p1963
aS'http://www.365essay.com/?post=1562'
p1964
aS'http://www.365essay.com/?post=1563'
p1965
aS'http://www.365essay.com/?post=1564'
p1966
aS'http://www.365essay.com/?post=1565'
p1967
aS'http://www.365essay.com/?post=1566'
p1968
aS'http://www.365essay.com/?post=1567'
p1969
aS'http://www.365essay.com/?post=1568'
p1970
aS'http://www.365essay.com/?post=1569'
p1971
aS'http://www.365essay.com/?post=1570'
p1972
aS'http://www.365essay.com/?post=1571'
p1973
aS'http://www.365essay.com/?post=1572'
p1974
aS'http://www.365essay.com/?post=1573'
p1975
aS'http://www.365essay.com/?post=1574'
p1976
aS'http://www.365essay.com/?post=1575'
p1977
aS'http://www.365essay.com/?post=1576'
p1978
aS'http://www.365essay.com/?post=1577'
p1979
aS'http://www.365essay.com/?post=1578'
p1980
aS'http://www.365essay.com/?post=1579'
p1981
aS'http://www.365essay.com/?post=1580'
p1982
aS'http://www.365essay.com/?post=1581'
p1983
aS'http://www.365essay.com/?post=1582'
p1984
aS'http://www.365essay.com/?post=1583'
p1985
aS'http://www.365essay.com/?post=1584'
p1986
aS'http://www.365essay.com/?post=1585'
p1987
aS'http://www.365essay.com/?post=1586'
p1988
aS'http://www.365essay.com/?post=1587'
p1989
aS'http://www.365essay.com/?post=1588'
p1990
aS'http://www.365essay.com/?post=1589'
p1991
aS'http://www.365essay.com/?post=1590'
p1992
aS'http://www.365essay.com/?post=1591'
p1993
aS'http://www.365essay.com/?post=1592'
p1994
aS'http://www.365essay.com/?post=1593'
p1995
aS'http://www.365essay.com/?post=1594'
p1996
aS'http://www.365essay.com/?post=1595'
p1997
aS'http://www.365essay.com/?post=1596'
p1998
aS'http://www.365essay.com/?post=1597'
p1999
aS'http://www.365essay.com/?post=1598'
p2000
aS'http://www.365essay.com/?post=1599'
p2001
aS'http://www.365essay.com/?post=1600'
p2002
aS'http://www.365essay.com/?post=1601'
p2003
aS'http://www.365essay.com/?post=1602'
p2004
aS'http://www.365essay.com/?post=1603'
p2005
aS'http://www.365essay.com/?post=1604'
p2006
aS'http://www.365essay.com/?post=1605'
p2007
aS'http://www.365essay.com/?post=1606'
p2008
aS'http://www.365essay.com/?post=1607'
p2009
aS'http://www.365essay.com/?post=1608'
p2010
aS'http://www.365essay.com/?post=1609'
p2011
aS'http://www.365essay.com/?post=1610'
p2012
aS'http://www.365essay.com/?post=1611'
p2013
aS'http://www.365essay.com/?post=1612'
p2014
aS'http://www.365essay.com/?post=1613'
p2015
aS'http://www.365essay.com/?post=1614'
p2016
aS'http://www.365essay.com/?post=1615'
p2017
aS'http://www.365essay.com/?post=1616'
p2018
aS'http://www.365essay.com/?post=1617'
p2019
aS'http://www.365essay.com/?post=1618'
p2020
aS'http://www.365essay.com/?post=1619'
p2021
aS'http://www.365essay.com/?post=1620'
p2022
aS'http://www.365essay.com/?post=1621'
p2023
aS'http://www.365essay.com/?post=1622'
p2024
aS'http://www.365essay.com/?post=1623'
p2025
aS'http://www.365essay.com/?post=1624'
p2026
aS'http://www.365essay.com/?post=1625'
p2027
aS'http://www.365essay.com/?post=1626'
p2028
aS'http://www.365essay.com/?post=1627'
p2029
aS'http://www.365essay.com/?post=1628'
p2030
aS'http://www.365essay.com/?post=1629'
p2031
aS'http://www.365essay.com/?post=1630'
p2032
aS'http://www.365essay.com/?post=1631'
p2033
aS'http://www.365essay.com/?post=1632'
p2034
aS'http://www.365essay.com/?post=1633'
p2035
aS'http://www.365essay.com/?post=1634'
p2036
aS'http://www.365essay.com/?post=1635'
p2037
aS'http://www.365essay.com/?post=1636'
p2038
aS'http://www.365essay.com/?post=1637'
p2039
aS'http://www.365essay.com/?post=1638'
p2040
aS'http://www.365essay.com/?post=1639'
p2041
aS'http://www.365essay.com/?post=1640'
p2042
aS'http://www.365essay.com/?post=1641'
p2043
aS'http://www.365essay.com/?post=1642'
p2044
aS'http://www.365essay.com/?post=1643'
p2045
aS'http://www.365essay.com/?post=1644'
p2046
aS'http://www.365essay.com/?post=1645'
p2047
aS'http://www.365essay.com/?post=1646'
p2048
aS'http://www.365essay.com/?post=1647'
p2049
aS'http://www.365essay.com/?post=1648'
p2050
aS'http://www.365essay.com/?post=1649'
p2051
aS'http://www.365essay.com/?post=1650'
p2052
aS'http://www.365essay.com/?post=1651'
p2053
aS'http://www.365essay.com/?post=1652'
p2054
aS'http://www.365essay.com/?post=1653'
p2055
aS'http://www.365essay.com/?post=1654'
p2056
aS'http://www.365essay.com/?post=1655'
p2057
aS'http://www.365essay.com/?post=1656'
p2058
aS'http://www.365essay.com/?post=1657'
p2059
aS'http://www.365essay.com/?post=1658'
p2060
aS'http://www.365essay.com/?post=1659'
p2061
aS'http://www.365essay.com/?post=1660'
p2062
aS'http://www.365essay.com/?post=1661'
p2063
aS'http://www.365essay.com/?post=1662'
p2064
aS'http://www.365essay.com/?post=1663'
p2065
aS'http://www.365essay.com/?post=1664'
p2066
aS'http://www.365essay.com/?post=1665'
p2067
aS'http://www.365essay.com/?post=1666'
p2068
aS'http://www.365essay.com/?post=1667'
p2069
aS'http://www.365essay.com/?post=1668'
p2070
aS'http://www.365essay.com/?post=1669'
p2071
aS'http://www.365essay.com/?post=1670'
p2072
aS'http://www.365essay.com/?post=1671'
p2073
aS'http://www.365essay.com/?post=1672'
p2074
aS'http://www.365essay.com/?post=1673'
p2075
aS'http://www.365essay.com/?post=1674'
p2076
aS'http://www.365essay.com/?post=1675'
p2077
aS'http://www.365essay.com/?post=1676'
p2078
aS'http://www.365essay.com/?post=1677'
p2079
aS'http://www.365essay.com/?post=1678'
p2080
aS'http://www.365essay.com/?post=1679'
p2081
aS'http://www.365essay.com/?post=1680'
p2082
aS'http://www.365essay.com/?post=1681'
p2083
aS'http://www.365essay.com/?post=1682'
p2084
aS'http://www.365essay.com/?post=1683'
p2085
aS'http://www.365essay.com/?post=1684'
p2086
aS'http://www.365essay.com/?post=1685'
p2087
aS'http://www.365essay.com/?post=1686'
p2088
aS'http://www.365essay.com/?post=1687'
p2089
aS'http://www.365essay.com/?post=1688'
p2090
aS'http://www.365essay.com/?post=1689'
p2091
aS'http://www.365essay.com/?post=1690'
p2092
aS'http://www.365essay.com/?post=1691'
p2093
aS'http://www.365essay.com/?post=1692'
p2094
aS'http://www.365essay.com/?post=1693'
p2095
aS'http://www.365essay.com/?post=1694'
p2096
aS'http://www.365essay.com/?post=1695'
p2097
aS'http://www.365essay.com/?post=1696'
p2098
aS'http://www.365essay.com/?post=1697'
p2099
aS'http://www.365essay.com/?post=1698'
p2100
aS'http://www.365essay.com/?post=1699'
p2101
aS'http://www.365essay.com/?post=1700'
p2102
aS'http://www.365essay.com/?post=1701'
p2103
aS'http://www.365essay.com/?post=1702'
p2104
aS'http://www.365essay.com/?post=1703'
p2105
aS'http://www.365essay.com/?post=1704'
p2106
aS'http://www.365essay.com/?post=1705'
p2107
aS'http://www.365essay.com/?post=1706'
p2108
aS'http://www.365essay.com/?post=1707'
p2109
aS'http://www.365essay.com/?post=1708'
p2110
aS'http://www.365essay.com/?post=1709'
p2111
aS'http://www.365essay.com/?post=1710'
p2112
aS'http://www.365essay.com/?post=1711'
p2113
aS'http://www.365essay.com/?post=1712'
p2114
aS'http://www.365essay.com/?post=1713'
p2115
aS'http://www.365essay.com/?post=1714'
p2116
aS'http://www.365essay.com/?post=1715'
p2117
aS'http://www.365essay.com/?post=1716'
p2118
aS'http://www.365essay.com/?post=1717'
p2119
aS'http://www.365essay.com/?post=1718'
p2120
aS'http://www.365essay.com/?post=1719'
p2121
aS'http://www.365essay.com/?post=1720'
p2122
aS'http://www.365essay.com/?post=1721'
p2123
aS'http://www.365essay.com/?post=1722'
p2124
aS'http://www.365essay.com/?post=1723'
p2125
aS'http://www.365essay.com/?post=1724'
p2126
aS'http://www.365essay.com/?post=1725'
p2127
aS'http://www.365essay.com/?post=1726'
p2128
aS'http://www.365essay.com/?post=1727'
p2129
aS'http://www.365essay.com/?post=1728'
p2130
aS'http://www.365essay.com/?post=1729'
p2131
aS'http://www.365essay.com/?post=1730'
p2132
aS'http://www.365essay.com/?post=1731'
p2133
aS'http://www.365essay.com/?post=1732'
p2134
aS'http://www.365essay.com/?post=1733'
p2135
aS'http://www.365essay.com/?post=1734'
p2136
aS'http://www.365essay.com/?post=1735'
p2137
aS'http://www.365essay.com/?post=1736'
p2138
aS'http://www.365essay.com/?post=1737'
p2139
aS'http://www.365essay.com/?post=1738'
p2140
aS'http://www.365essay.com/?post=1739'
p2141
aS'http://www.365essay.com/?post=1740'
p2142
aS'http://www.365essay.com/?post=1741'
p2143
aS'http://www.365essay.com/?post=1742'
p2144
aS'http://www.365essay.com/?post=1743'
p2145
aS'http://www.365essay.com/?post=1744'
p2146
aS'http://www.365essay.com/?post=1745'
p2147
aS'http://www.365essay.com/?post=1746'
p2148
aS'http://www.365essay.com/?post=1747'
p2149
aS'http://www.365essay.com/?post=1748'
p2150
aS'http://www.365essay.com/?post=1749'
p2151
aS'http://www.365essay.com/?post=1750'
p2152
aS'http://www.365essay.com/?post=1751'
p2153
aS'http://www.365essay.com/?post=1752'
p2154
aS'http://www.365essay.com/?post=1753'
p2155
aS'http://www.365essay.com/?post=1754'
p2156
aS'http://www.365essay.com/?post=1755'
p2157
aS'http://www.365essay.com/?post=1756'
p2158
aS'http://www.365essay.com/?post=1757'
p2159
aS'http://www.365essay.com/?post=1758'
p2160
aS'http://www.365essay.com/?post=1759'
p2161
aS'http://www.365essay.com/?post=1760'
p2162
aS'http://www.365essay.com/?post=1761'
p2163
aS'http://www.365essay.com/?post=1762'
p2164
aS'http://www.365essay.com/?post=1763'
p2165
aS'http://www.365essay.com/?post=1764'
p2166
aS'http://www.365essay.com/?post=1765'
p2167
aS'http://www.365essay.com/?post=1766'
p2168
aS'http://www.365essay.com/?post=1767'
p2169
aS'http://www.365essay.com/?post=1768'
p2170
aS'http://www.365essay.com/?post=1769'
p2171
aS'http://www.365essay.com/?post=1770'
p2172
aS'http://www.365essay.com/?post=1771'
p2173
aS'http://www.365essay.com/?post=1772'
p2174
aS'http://www.365essay.com/?post=1773'
p2175
aS'http://www.365essay.com/?post=1774'
p2176
aS'http://www.365essay.com/?post=1775'
p2177
aS'http://www.365essay.com/?post=1776'
p2178
aS'http://www.365essay.com/?post=1777'
p2179
aS'http://www.365essay.com/?post=1778'
p2180
aS'http://www.365essay.com/?post=1779'
p2181
aS'http://www.365essay.com/?post=1780'
p2182
aS'http://www.365essay.com/?post=1781'
p2183
aS'http://www.365essay.com/?post=1782'
p2184
aS'http://www.365essay.com/?post=1783'
p2185
aS'http://www.365essay.com/?post=1784'
p2186
aS'http://www.365essay.com/?post=1785'
p2187
aS'http://www.365essay.com/?post=1786'
p2188
aS'http://www.365essay.com/?post=1787'
p2189
aS'http://www.365essay.com/?post=1788'
p2190
aS'http://www.365essay.com/?post=1789'
p2191
aS'http://www.365essay.com/?post=1790'
p2192
aS'http://www.365essay.com/?post=1791'
p2193
aS'http://www.365essay.com/?post=1792'
p2194
aS'http://www.365essay.com/?post=1793'
p2195
aS'http://www.365essay.com/?post=1794'
p2196
aS'http://www.365essay.com/?post=1795'
p2197
aS'http://www.365essay.com/?post=1796'
p2198
aS'http://www.365essay.com/?post=1797'
p2199
aS'http://www.365essay.com/?post=1798'
p2200
aS'http://www.365essay.com/?post=1799'
p2201
aS'http://www.365essay.com/?post=1800'
p2202
aS'http://www.365essay.com/?post=1801'
p2203
aS'http://www.365essay.com/?post=1802'
p2204
aS'http://www.365essay.com/?post=1803'
p2205
aS'http://www.365essay.com/?post=1804'
p2206
aS'http://www.365essay.com/?post=1805'
p2207
aS'http://www.365essay.com/?post=1806'
p2208
aS'http://www.365essay.com/?post=1807'
p2209
aS'http://www.365essay.com/?post=1808'
p2210
aS'http://www.365essay.com/?post=1809'
p2211
aS'http://www.365essay.com/?post=1810'
p2212
aS'http://www.365essay.com/?post=1811'
p2213
aS'http://www.365essay.com/?post=1812'
p2214
aS'http://www.365essay.com/?post=1813'
p2215
aS'http://www.365essay.com/?post=1814'
p2216
aS'http://www.365essay.com/?post=1815'
p2217
aS'http://www.365essay.com/?post=1816'
p2218
aS'http://www.365essay.com/?post=1817'
p2219
aS'http://www.365essay.com/?post=1818'
p2220
aS'http://www.365essay.com/?post=1819'
p2221
aS'http://www.365essay.com/?post=1820'
p2222
aS'http://www.365essay.com/?post=1821'
p2223
aS'http://www.365essay.com/?post=1822'
p2224
aS'http://www.365essay.com/?post=1823'
p2225
aS'http://www.365essay.com/?post=1824'
p2226
aS'http://www.365essay.com/?post=1825'
p2227
aS'http://www.365essay.com/?post=1826'
p2228
aS'http://www.365essay.com/?post=1827'
p2229
aS'http://www.365essay.com/?post=1828'
p2230
aS'http://www.365essay.com/?post=1829'
p2231
aS'http://www.365essay.com/?post=1830'
p2232
aS'http://www.365essay.com/?post=1831'
p2233
aS'http://www.365essay.com/?post=1832'
p2234
aS'http://www.365essay.com/?post=1833'
p2235
aS'http://www.365essay.com/?post=1834'
p2236
aS'http://www.365essay.com/?post=1835'
p2237
aS'http://www.365essay.com/?post=1836'
p2238
aS'http://www.365essay.com/?post=1837'
p2239
aS'http://www.365essay.com/?post=1838'
p2240
aS'http://www.365essay.com/?post=1839'
p2241
aS'http://www.365essay.com/?post=1840'
p2242
aS'http://www.365essay.com/?post=1841'
p2243
aS'http://www.365essay.com/?post=1842'
p2244
aS'http://www.365essay.com/?post=1843'
p2245
aS'http://www.365essay.com/?post=1844'
p2246
aS'http://www.365essay.com/?post=1845'
p2247
aS'http://www.365essay.com/?post=1846'
p2248
aS'http://www.365essay.com/?post=1847'
p2249
aS'http://www.365essay.com/?post=1848'
p2250
aS'http://www.365essay.com/?post=1849'
p2251
aS'http://www.365essay.com/?post=1850'
p2252
aS'http://www.365essay.com/?post=1851'
p2253
aS'http://www.365essay.com/?post=1852'
p2254
aS'http://www.365essay.com/?post=1853'
p2255
aS'http://www.365essay.com/?post=1854'
p2256
aS'http://www.365essay.com/?post=1855'
p2257
aS'http://www.365essay.com/?post=1856'
p2258
aS'http://www.365essay.com/?post=1857'
p2259
aS'http://www.365essay.com/?post=1858'
p2260
aS'http://www.365essay.com/?post=1859'
p2261
aS'http://www.365essay.com/?post=1860'
p2262
aS'http://www.365essay.com/?post=1861'
p2263
aS'http://www.365essay.com/?post=1862'
p2264
aS'http://www.365essay.com/?post=1863'
p2265
aS'http://www.365essay.com/?post=1864'
p2266
aS'http://www.365essay.com/?post=1865'
p2267
aS'http://www.365essay.com/?post=1866'
p2268
aS'http://www.365essay.com/?post=1867'
p2269
aS'http://www.365essay.com/?post=1868'
p2270
aS'http://www.365essay.com/?post=1869'
p2271
aS'http://www.365essay.com/?post=1870'
p2272
aS'http://www.365essay.com/?post=1871'
p2273
aS'http://www.365essay.com/?post=1872'
p2274
aS'http://www.365essay.com/?post=1873'
p2275
aS'http://www.365essay.com/?post=1874'
p2276
aS'http://www.365essay.com/?post=1875'
p2277
aS'http://www.365essay.com/?post=1876'
p2278
aS'http://www.365essay.com/?post=1877'
p2279
aS'http://www.365essay.com/?post=1878'
p2280
aS'http://www.365essay.com/?post=1879'
p2281
aS'http://www.365essay.com/?post=1880'
p2282
aS'http://www.365essay.com/?post=1881'
p2283
aS'http://www.365essay.com/?post=1882'
p2284
aS'http://www.365essay.com/?post=1883'
p2285
aS'http://www.365essay.com/?post=1884'
p2286
aS'http://www.365essay.com/?post=1885'
p2287
aS'http://www.365essay.com/?post=1886'
p2288
aS'http://www.365essay.com/?post=1887'
p2289
aS'http://www.365essay.com/?post=1888'
p2290
aS'http://www.365essay.com/?post=1889'
p2291
aS'http://www.365essay.com/?post=1890'
p2292
aS'http://www.365essay.com/?post=1891'
p2293
aS'http://www.365essay.com/?post=1892'
p2294
aS'http://www.365essay.com/?post=1893'
p2295
aS'http://www.365essay.com/?post=1894'
p2296
aS'http://www.365essay.com/?post=1895'
p2297
aS'http://www.365essay.com/?post=1896'
p2298
aS'http://www.365essay.com/?post=1897'
p2299
aS'http://www.365essay.com/?post=1898'
p2300
aS'http://www.365essay.com/?post=1899'
p2301
aS'http://www.365essay.com/?post=1900'
p2302
aS'http://www.365essay.com/?post=1901'
p2303
aS'http://www.365essay.com/?post=1902'
p2304
a.