(lp0
S'http://www.365essay.com/xiaoxiaoshuo/002.htm'
p1
aS'http://www.365essay.com/xiaoxiaoshuo/003.htm'
p2
aS'http://www.365essay.com/xiaoxiaoshuo/004.htm'
p3
aS'http://www.365essay.com/xiaoxiaoshuo/005.htm'
p4
aS'http://www.365essay.com/xiaoxiaoshuo/006.htm'
p5
aS'http://www.365essay.com/xiaoxiaoshuo/007.htm'
p6
aS'http://www.365essay.com/xiaoxiaoshuo/008.htm'
p7
aS'http://www.365essay.com/xiaoxiaoshuo/009.htm'
p8
aS'http://www.365essay.com/xiaoxiaoshuo/010.htm'
p9
aS'http://www.365essay.com/xiaoxiaoshuo/011.htm'
p10
aS'http://www.365essay.com/xiaoxiaoshuo/012.htm'
p11
aS'http://www.365essay.com/xiaoxiaoshuo/013.htm'
p12
aS'http://www.365essay.com/xiaoxiaoshuo/014.htm'
p13
aS'http://www.365essay.com/xiaoxiaoshuo/015.htm'
p14
aS'http://www.365essay.com/xiaoxiaoshuo/016.htm'
p15
aS'http://www.365essay.com/xiaoxiaoshuo/017.htm'
p16
aS'http://www.365essay.com/xiaoxiaoshuo/018.htm'
p17
aS'http://www.365essay.com/xiaoxiaoshuo/019.htm'
p18
aS'http://www.365essay.com/xiaoxiaoshuo/020.htm'
p19
aS'http://www.365essay.com/xiaoxiaoshuo/021.htm'
p20
aS'http://www.365essay.com/xiaoxiaoshuo/022.htm'
p21
aS'http://www.365essay.com/xiaoxiaoshuo/023.htm'
p22
aS'http://www.365essay.com/xiaoxiaoshuo/024.htm'
p23
aS'http://www.365essay.com/xiaoxiaoshuo/025.htm'
p24
aS'http://www.365essay.com/xiaoxiaoshuo/026.htm'
p25
aS'http://www.365essay.com/xiaoxiaoshuo/027.htm'
p26
aS'http://www.365essay.com/xiaoxiaoshuo/028.htm'
p27
aS'http://www.365essay.com/xiaoxiaoshuo/029.htm'
p28
aS'http://www.365essay.com/xiaoxiaoshuo/030.htm'
p29
aS'http://www.365essay.com/xiaoxiaoshuo/031.htm'
p30
aS'http://www.365essay.com/xiaoxiaoshuo/032.htm'
p31
aS'http://www.365essay.com/xiaoxiaoshuo/033.htm'
p32
aS'http://www.365essay.com/xiaoxiaoshuo/034.htm'
p33
aS'http://www.365essay.com/xiaoxiaoshuo/035.htm'
p34
aS'http://www.365essay.com/xiaoxiaoshuo/036.htm'
p35
aS'http://www.365essay.com/xiaoxiaoshuo/037.htm'
p36
aS'http://www.365essay.com/xiaoxiaoshuo/038.htm'
p37
aS'http://www.365essay.com/xiaoxiaoshuo/039.htm'
p38
aS'http://www.365essay.com/xiaoxiaoshuo/040.htm'
p39
aS'http://www.365essay.com/xiaoxiaoshuo/041.htm'
p40
aS'http://www.365essay.com/xiaoxiaoshuo/042.htm'
p41
aS'http://www.365essay.com/xiaoxiaoshuo/043.htm'
p42
aS'http://www.365essay.com/xiaoxiaoshuo/044.htm'
p43
aS'http://www.365essay.com/xiaoxiaoshuo/045.htm'
p44
aS'http://www.365essay.com/xiaoxiaoshuo/046.htm'
p45
aS'http://www.365essay.com/xiaoxiaoshuo/047.htm'
p46
aS'http://www.365essay.com/xiaoxiaoshuo/048.htm'
p47
aS'http://www.365essay.com/xiaoxiaoshuo/049.htm'
p48
aS'http://www.365essay.com/xiaoxiaoshuo/050.htm'
p49
aS'http://www.365essay.com/xiaoxiaoshuo/051.htm'
p50
aS'http://www.365essay.com/xiaoxiaoshuo/052.htm'
p51
aS'http://www.365essay.com/xiaoxiaoshuo/053.htm'
p52
aS'http://www.365essay.com/xiaoxiaoshuo/054.htm'
p53
aS'http://www.365essay.com/xiaoxiaoshuo/055.htm'
p54
aS'http://www.365essay.com/xiaoxiaoshuo/056.htm'
p55
aS'http://www.365essay.com/xiaoxiaoshuo/057.htm'
p56
aS'http://www.365essay.com/xiaoxiaoshuo/058.htm'
p57
aS'http://www.365essay.com/xiaoxiaoshuo/059.htm'
p58
aS'http://www.365essay.com/xiaoxiaoshuo/060.htm'
p59
aS'http://www.365essay.com/xiaoxiaoshuo/061.htm'
p60
aS'http://www.365essay.com/xiaoxiaoshuo/062.htm'
p61
aS'http://www.365essay.com/xiaoxiaoshuo/063.htm'
p62
aS'http://www.365essay.com/xiaoxiaoshuo/064.htm'
p63
aS'http://www.365essay.com/xiaoxiaoshuo/065.htm'
p64
aS'http://www.365essay.com/xiaoxiaoshuo/066.htm'
p65
aS'http://www.365essay.com/xiaoxiaoshuo/067.htm'
p66
aS'http://www.365essay.com/xiaoxiaoshuo/068.htm'
p67
aS'http://www.365essay.com/xiaoxiaoshuo/069.htm'
p68
aS'http://www.365essay.com/xiaoxiaoshuo/070.htm'
p69
aS'http://www.365essay.com/xiaoxiaoshuo/071.htm'
p70
aS'http://www.365essay.com/xiaoxiaoshuo/072.htm'
p71
aS'http://www.365essay.com/xiaoxiaoshuo/073.htm'
p72
aS'http://www.365essay.com/xiaoxiaoshuo/074.htm'
p73
aS'http://www.365essay.com/xiaoxiaoshuo/075.htm'
p74
aS'http://www.365essay.com/xiaoxiaoshuo/076.htm'
p75
aS'http://www.365essay.com/xiaoxiaoshuo/077.htm'
p76
aS'http://www.365essay.com/xiaoxiaoshuo/078.htm'
p77
aS'http://www.365essay.com/xiaoxiaoshuo/079.htm'
p78
aS'http://www.365essay.com/xiaoxiaoshuo/080.htm'
p79
aS'http://www.365essay.com/xiaoxiaoshuo/081.htm'
p80
aS'http://www.365essay.com/xiaoxiaoshuo/082.htm'
p81
aS'http://www.365essay.com/xiaoxiaoshuo/083.htm'
p82
aS'http://www.365essay.com/xiaoxiaoshuo/084.htm'
p83
aS'http://www.365essay.com/xiaoxiaoshuo/085.htm'
p84
aS'http://www.365essay.com/xiaoxiaoshuo/086.htm'
p85
aS'http://www.365essay.com/xiaoxiaoshuo/087.htm'
p86
aS'http://www.365essay.com/xiaoxiaoshuo/088.htm'
p87
aS'http://www.365essay.com/xiaoxiaoshuo/089.htm'
p88
aS'http://www.365essay.com/xiaoxiaoshuo/090.htm'
p89
aS'http://www.365essay.com/xiaoxiaoshuo/091.htm'
p90
aS'http://www.365essay.com/xiaoxiaoshuo/092.htm'
p91
aS'http://www.365essay.com/xiaoxiaoshuo/093.htm'
p92
aS'http://www.365essay.com/xiaoxiaoshuo/094.htm'
p93
aS'http://www.365essay.com/xiaoxiaoshuo/095.htm'
p94
aS'http://www.365essay.com/xiaoxiaoshuo/096.htm'
p95
aS'http://www.365essay.com/xiaoxiaoshuo/097.htm'
p96
aS'http://www.365essay.com/xiaoxiaoshuo/098.htm'
p97
aS'http://www.365essay.com/xiaoxiaoshuo/099.htm'
p98
aS'http://www.365essay.com/xiaoxiaoshuo/100.htm'
p99
aS'http://www.365essay.com/xiaoxiaoshuo/101.htm'
p100
aS'http://www.365essay.com/xiaoxiaoshuo/102.htm'
p101
aS'http://www.365essay.com/xiaoxiaoshuo/103.htm'
p102
aS'http://www.365essay.com/xiaoxiaoshuo/104.htm'
p103
aS'http://www.365essay.com/xiaoxiaoshuo/105.htm'
p104
aS'http://www.365essay.com/xiaoxiaoshuo/106.htm'
p105
aS'http://www.365essay.com/xiaoxiaoshuo/107.htm'
p106
aS'http://www.365essay.com/xiaoxiaoshuo/108.htm'
p107
aS'http://www.365essay.com/xiaoxiaoshuo/109.htm'
p108
aS'http://www.365essay.com/xiaoxiaoshuo/110.htm'
p109
aS'http://www.365essay.com/xiaoxiaoshuo/111.htm'
p110
aS'http://www.365essay.com/xiaoxiaoshuo/112.htm'
p111
aS'http://www.365essay.com/xiaoxiaoshuo/113.htm'
p112
aS'http://www.365essay.com/xiaoxiaoshuo/114.htm'
p113
aS'http://www.365essay.com/xiaoxiaoshuo/115.htm'
p114
aS'http://www.365essay.com/xiaoxiaoshuo/116.htm'
p115
aS'http://www.365essay.com/xiaoxiaoshuo/117.htm'
p116
aS'http://www.365essay.com/xiaoxiaoshuo/118.htm'
p117
aS'http://www.365essay.com/xiaoxiaoshuo/119.htm'
p118
aS'http://www.365essay.com/xiaoxiaoshuo/120.htm'
p119
aS'http://www.365essay.com/xiaoxiaoshuo/121.htm'
p120
aS'http://www.365essay.com/xiaoxiaoshuo/122.htm'
p121
aS'http://www.365essay.com/xiaoxiaoshuo/123.htm'
p122
aS'http://www.365essay.com/xiaoxiaoshuo/124.htm'
p123
aS'http://www.365essay.com/xiaoxiaoshuo/125.htm'
p124
aS'http://www.365essay.com/xiaoxiaoshuo/126.htm'
p125
aS'http://www.365essay.com/xiaoxiaoshuo/127.htm'
p126
aS'http://www.365essay.com/xiaoxiaoshuo/128.htm'
p127
aS'http://www.365essay.com/xiaoxiaoshuo/129.htm'
p128
aS'http://www.365essay.com/xiaoxiaoshuo/130.htm'
p129
aS'http://www.365essay.com/xiaoxiaoshuo/131.htm'
p130
aS'http://www.365essay.com/xiaoxiaoshuo/132.htm'
p131
aS'http://www.365essay.com/xiaoxiaoshuo/133.htm'
p132
aS'http://www.365essay.com/xiaoxiaoshuo/134.htm'
p133
aS'http://www.365essay.com/xiaoxiaoshuo/135.htm'
p134
aS'http://www.365essay.com/xiaoxiaoshuo/136.htm'
p135
aS'http://www.365essay.com/xiaoxiaoshuo/137.htm'
p136
aS'http://www.365essay.com/xiaoxiaoshuo/138.htm'
p137
aS'http://www.365essay.com/xiaoxiaoshuo/139.htm'
p138
aS'http://www.365essay.com/xiaoxiaoshuo/140.htm'
p139
aS'http://www.365essay.com/xiaoxiaoshuo/141.htm'
p140
aS'http://www.365essay.com/xiaoxiaoshuo/142.htm'
p141
aS'http://www.365essay.com/xiaoxiaoshuo/143.htm'
p142
aS'http://www.365essay.com/xiaoxiaoshuo/144.htm'
p143
aS'http://www.365essay.com/xiaoxiaoshuo/145.htm'
p144
aS'http://www.365essay.com/xiaoxiaoshuo/146.htm'
p145
aS'http://www.365essay.com/xiaoxiaoshuo/147.htm'
p146
aS'http://www.365essay.com/xiaoxiaoshuo/148.htm'
p147
aS'http://www.365essay.com/xiaoxiaoshuo/149.htm'
p148
aS'http://www.365essay.com/xiaoxiaoshuo/150.htm'
p149
aS'http://www.365essay.com/xiaoxiaoshuo/151.htm'
p150
aS'http://www.365essay.com/xiaoxiaoshuo/152.htm'
p151
aS'http://www.365essay.com/xiaoxiaoshuo/153.htm'
p152
aS'http://www.365essay.com/xiaoxiaoshuo/154.htm'
p153
aS'http://www.365essay.com/xiaoxiaoshuo/155.htm'
p154
aS'http://www.365essay.com/xiaoxiaoshuo/156.htm'
p155
aS'http://www.365essay.com/xiaoxiaoshuo/157.htm'
p156
aS'http://www.365essay.com/xiaoxiaoshuo/158.htm'
p157
aS'http://www.365essay.com/xiaoxiaoshuo/159.htm'
p158
aS'http://www.365essay.com/xiaoxiaoshuo/160.htm'
p159
aS'http://www.365essay.com/xiaoxiaoshuo/161.htm'
p160
aS'http://www.365essay.com/xiaoxiaoshuo/162.htm'
p161
aS'http://www.365essay.com/xiaoxiaoshuo/163.htm'
p162
aS'http://www.365essay.com/xiaoxiaoshuo/164.htm'
p163
aS'http://www.365essay.com/xiaoxiaoshuo/165.htm'
p164
aS'http://www.365essay.com/xiaoxiaoshuo/166.htm'
p165
aS'http://www.365essay.com/xiaoxiaoshuo/167.htm'
p166
aS'http://www.365essay.com/xiaoxiaoshuo/168.htm'
p167
aS'http://www.365essay.com/xiaoxiaoshuo/169.htm'
p168
aS'http://www.365essay.com/xiaoxiaoshuo/170.htm'
p169
aS'http://www.365essay.com/xiaoxiaoshuo/171.htm'
p170
aS'http://www.365essay.com/xiaoxiaoshuo/172.htm'
p171
aS'http://www.365essay.com/xiaoxiaoshuo/173.htm'
p172
aS'http://www.365essay.com/xiaoxiaoshuo/174.htm'
p173
aS'http://www.365essay.com/xiaoxiaoshuo/175.htm'
p174
a.
